Component: ARM Compiler 5.05 update 1 (build 106) Tool: armlink [4d0efa]

==============================================================================

Section Cross References

    stm32f10x_it.o(i.ETH_IRQHandler) refers to netconf.o(i.LwIP_Pkt_Handle) for LwIP_Pkt_Handle
    stm32f10x_it.o(i.ETH_IRQHandler) refers to stm32_eth.o(i.ETH_GetRxPktSize) for ETH_GetRxPktSize
    stm32f10x_it.o(i.ETH_IRQHandler) refers to stm32_eth.o(i.ETH_DMAClearITPendingBit) for ETH_DMAClearITPendingBit
    stm32f10x_it.o(i.EXTI15_10_IRQHandler) refers to stm32f10x_exti.o(i.EXTI_GetITStatus) for EXTI_GetITStatus
    stm32f10x_it.o(i.EXTI15_10_IRQHandler) refers to stm3210c_eval_ioe.o(i.IOE_GetGITStatus) for IOE_GetGITStatus
    stm32f10x_it.o(i.EXTI15_10_IRQHandler) refers to stm3210c_eval_ioe.o(i.IOE_TS_GetState) for IOE_TS_GetState
    stm32f10x_it.o(i.EXTI15_10_IRQHandler) refers to stm3210c_eval_lcd.o(i.LCD_DisplayStringLine) for LCD_DisplayStringLine
    stm32f10x_it.o(i.EXTI15_10_IRQHandler) refers to stm32_eval.o(i.STM_EVAL_LEDOn) for STM_EVAL_LEDOn
    stm32f10x_it.o(i.EXTI15_10_IRQHandler) refers to client.o(i.tcp_led_control) for tcp_led_control
    stm32f10x_it.o(i.EXTI15_10_IRQHandler) refers to stm32_eval.o(i.STM_EVAL_LEDOff) for STM_EVAL_LEDOff
    stm32f10x_it.o(i.EXTI15_10_IRQHandler) refers to stm3210c_eval_ioe.o(i.IOE_ClearGITPending) for IOE_ClearGITPending
    stm32f10x_it.o(i.EXTI15_10_IRQHandler) refers to stm32f10x_exti.o(i.EXTI_ClearITPendingBit) for EXTI_ClearITPendingBit
    stm32f10x_it.o(i.EXTI15_10_IRQHandler) refers to stm32f10x_it.o(.data) for .data
    stm32f10x_it.o(i.SysTick_Handler) refers to main.o(i.Time_Update) for Time_Update
    main.o(i.Delay) refers to main.o(.data) for .data
    main.o(i.System_Periodic_Handle) refers to netconf.o(i.Display_Periodic_Handle) for Display_Periodic_Handle
    main.o(i.System_Periodic_Handle) refers to netconf.o(i.LwIP_Periodic_Handle) for LwIP_Periodic_Handle
    main.o(i.System_Periodic_Handle) refers to main.o(.data) for .data
    main.o(i.Time_Update) refers to main.o(.data) for .data
    main.o(i.main) refers to stm32f107.o(i.System_Setup) for System_Setup
    main.o(i.main) refers to netconf.o(i.LwIP_Init) for LwIP_Init
    main.o(i.main) refers to helloworld.o(i.HelloWorld_init) for HelloWorld_init
    main.o(i.main) refers to httpd.o(i.httpd_init) for httpd_init
    main.o(i.main) refers to tftpserver.o(i.tftpd_init) for tftpd_init
    main.o(i.main) refers to main.o(i.System_Periodic_Handle) for System_Periodic_Handle
    stm32f107.o(i.ADC_Configuration) refers to stm32f10x_adc.o(i.ADC_Init) for ADC_Init
    stm32f107.o(i.ADC_Configuration) refers to stm32f10x_adc.o(i.ADC_RegularChannelConfig) for ADC_RegularChannelConfig
    stm32f107.o(i.ADC_Configuration) refers to stm32f10x_adc.o(i.ADC_Cmd) for ADC_Cmd
    stm32f107.o(i.ADC_Configuration) refers to stm32f10x_adc.o(i.ADC_SoftwareStartConvCmd) for ADC_SoftwareStartConvCmd
    stm32f107.o(i.Ethernet_Configuration) refers to stm32f10x_gpio.o(i.GPIO_ETH_MediaInterfaceConfig) for GPIO_ETH_MediaInterfaceConfig
    stm32f107.o(i.Ethernet_Configuration) refers to stm32f10x_rcc.o(i.RCC_PLL3Config) for RCC_PLL3Config
    stm32f107.o(i.Ethernet_Configuration) refers to stm32f10x_rcc.o(i.RCC_PLL3Cmd) for RCC_PLL3Cmd
    stm32f107.o(i.Ethernet_Configuration) refers to stm32f10x_rcc.o(i.RCC_GetFlagStatus) for RCC_GetFlagStatus
    stm32f107.o(i.Ethernet_Configuration) refers to stm32f10x_rcc.o(i.RCC_MCOConfig) for RCC_MCOConfig
    stm32f107.o(i.Ethernet_Configuration) refers to stm32_eth.o(i.ETH_DeInit) for ETH_DeInit
    stm32f107.o(i.Ethernet_Configuration) refers to stm32_eth.o(i.ETH_SoftwareReset) for ETH_SoftwareReset
    stm32f107.o(i.Ethernet_Configuration) refers to stm32_eth.o(i.ETH_GetSoftwareResetStatus) for ETH_GetSoftwareResetStatus
    stm32f107.o(i.Ethernet_Configuration) refers to stm32_eth.o(i.ETH_StructInit) for ETH_StructInit
    stm32f107.o(i.Ethernet_Configuration) refers to stm32_eth.o(i.ETH_Init) for ETH_Init
    stm32f107.o(i.Ethernet_Configuration) refers to stm32_eth.o(i.ETH_DMAITConfig) for ETH_DMAITConfig
    stm32f107.o(i.GPIO_Configuration) refers to stm32f10x_gpio.o(i.GPIO_Init) for GPIO_Init
    stm32f107.o(i.GPIO_Configuration) refers to stm32f10x_gpio.o(i.GPIO_PinRemapConfig) for GPIO_PinRemapConfig
    stm32f107.o(i.NVIC_Configuration) refers to misc.o(i.NVIC_SetVectorTable) for NVIC_SetVectorTable
    stm32f107.o(i.NVIC_Configuration) refers to misc.o(i.NVIC_PriorityGroupConfig) for NVIC_PriorityGroupConfig
    stm32f107.o(i.NVIC_Configuration) refers to misc.o(i.NVIC_Init) for NVIC_Init
    stm32f107.o(i.System_Setup) refers to system_stm32f10x.o(i.SystemInit) for SystemInit
    stm32f107.o(i.System_Setup) refers to stm32f10x_rcc.o(i.RCC_APB1PeriphClockCmd) for RCC_APB1PeriphClockCmd
    stm32f107.o(i.System_Setup) refers to stm32f10x_rcc.o(i.RCC_AHBPeriphClockCmd) for RCC_AHBPeriphClockCmd
    stm32f107.o(i.System_Setup) refers to stm32f10x_rcc.o(i.RCC_APB2PeriphClockCmd) for RCC_APB2PeriphClockCmd
    stm32f107.o(i.System_Setup) refers to stm32f107.o(i.NVIC_Configuration) for NVIC_Configuration
    stm32f107.o(i.System_Setup) refers to stm32f107.o(i.ADC_Configuration) for ADC_Configuration
    stm32f107.o(i.System_Setup) refers to stm32f107.o(i.GPIO_Configuration) for GPIO_Configuration
    stm32f107.o(i.System_Setup) refers to stm3210c_eval_lcd.o(i.STM3210C_LCD_Init) for STM3210C_LCD_Init
    stm32f107.o(i.System_Setup) refers to stm32_eval.o(i.STM_EVAL_LEDInit) for STM_EVAL_LEDInit
    stm32f107.o(i.System_Setup) refers to stm32_eval.o(i.STM_EVAL_LEDOn) for STM_EVAL_LEDOn
    stm32f107.o(i.System_Setup) refers to stm3210c_eval_lcd.o(i.LCD_Clear) for LCD_Clear
    stm32f107.o(i.System_Setup) refers to stm3210c_eval_lcd.o(i.LCD_SetBackColor) for LCD_SetBackColor
    stm32f107.o(i.System_Setup) refers to stm3210c_eval_lcd.o(i.LCD_SetTextColor) for LCD_SetTextColor
    stm32f107.o(i.System_Setup) refers to stm3210c_eval_lcd.o(i.LCD_DisplayStringLine) for LCD_DisplayStringLine
    stm32f107.o(i.System_Setup) refers to stm32f107.o(i.Ethernet_Configuration) for Ethernet_Configuration
    stm32f107.o(i.System_Setup) refers to stm32f10x_rcc.o(i.RCC_GetClocksFreq) for RCC_GetClocksFreq
    stm32f107.o(i.System_Setup) refers to stm32f107.o(i.NVIC_SetPriority) for NVIC_SetPriority
    stm32f107.o(i.System_Setup) refers to stm32_eval.o(i.STM_EVAL_PBInit) for STM_EVAL_PBInit
    netconf.o(i.Display_Periodic_Handle) refers to _printf_percent.o(.ARM.Collect$$_printf_percent$$00000000) for _printf_percent
    netconf.o(i.Display_Periodic_Handle) refers to _printf_d.o(.ARM.Collect$$_printf_percent$$00000009) for _printf_d
    netconf.o(i.Display_Periodic_Handle) refers to _printf_dec.o(.text) for _printf_int_dec
    netconf.o(i.Display_Periodic_Handle) refers to noretval__2sprintf.o(.text) for __2sprintf
    netconf.o(i.Display_Periodic_Handle) refers to stm3210c_eval_lcd.o(i.LCD_DisplayStringLine) for LCD_DisplayStringLine
    netconf.o(i.Display_Periodic_Handle) refers to main.o(i.Delay) for Delay
    netconf.o(i.Display_Periodic_Handle) refers to stm3210c_eval_lcd.o(i.LCD_Clear) for LCD_Clear
    netconf.o(i.Display_Periodic_Handle) refers to stm3210c_eval_lcd.o(i.LCD_SetBackColor) for LCD_SetBackColor
    netconf.o(i.Display_Periodic_Handle) refers to stm3210c_eval_lcd.o(i.LCD_SetTextColor) for LCD_SetTextColor
    netconf.o(i.Display_Periodic_Handle) refers to server.o(i.server_init) for server_init
    netconf.o(i.Display_Periodic_Handle) refers to stm3210c_eval_ioe.o(i.IOE_Config) for IOE_Config
    netconf.o(i.Display_Periodic_Handle) refers to stm3210c_eval_ioe.o(i.IOE_ITConfig) for IOE_ITConfig
    netconf.o(i.Display_Periodic_Handle) refers to client.o(i.client_init) for client_init
    netconf.o(i.Display_Periodic_Handle) refers to stm32_eval.o(i.STM_EVAL_LEDToggle) for STM_EVAL_LEDToggle
    netconf.o(i.Display_Periodic_Handle) refers to dhcp.o(i.dhcp_stop) for dhcp_stop
    netconf.o(i.Display_Periodic_Handle) refers to inet.o(i.htonl) for htonl
    netconf.o(i.Display_Periodic_Handle) refers to netif.o(i.netif_set_addr) for netif_set_addr
    netconf.o(i.Display_Periodic_Handle) refers to netconf.o(.data) for .data
    netconf.o(i.Display_Periodic_Handle) refers to netconf.o(.bss) for .bss
    netconf.o(i.LwIP_Init) refers to mem.o(i.mem_init) for mem_init
    netconf.o(i.LwIP_Init) refers to memp.o(i.memp_init) for memp_init
    netconf.o(i.LwIP_Init) refers to stm3210c_eval_lcd.o(i.LCD_DisplayStringLine) for LCD_DisplayStringLine
    netconf.o(i.LwIP_Init) refers to main.o(i.Delay) for Delay
    netconf.o(i.LwIP_Init) refers to stm32_eval.o(i.STM_EVAL_PBGetState) for STM_EVAL_PBGetState
    netconf.o(i.LwIP_Init) refers to ethernetif.o(i.Set_MAC_Address) for Set_MAC_Address
    netconf.o(i.LwIP_Init) refers to netif.o(i.netif_add) for netif_add
    netconf.o(i.LwIP_Init) refers to netif.o(i.netif_set_default) for netif_set_default
    netconf.o(i.LwIP_Init) refers to dhcp.o(i.dhcp_start) for dhcp_start
    netconf.o(i.LwIP_Init) refers to netif.o(i.netif_set_up) for netif_set_up
    netconf.o(i.LwIP_Init) refers to netconf.o(.data) for .data
    netconf.o(i.LwIP_Init) refers to etharp.o(i.ethernet_input) for ethernet_input
    netconf.o(i.LwIP_Init) refers to ethernetif.o(i.ethernetif_init) for ethernetif_init
    netconf.o(i.LwIP_Init) refers to netconf.o(.bss) for .bss
    netconf.o(i.LwIP_Periodic_Handle) refers to tcp.o(i.tcp_tmr) for tcp_tmr
    netconf.o(i.LwIP_Periodic_Handle) refers to etharp.o(i.etharp_tmr) for etharp_tmr
    netconf.o(i.LwIP_Periodic_Handle) refers to dhcp.o(i.dhcp_fine_tmr) for dhcp_fine_tmr
    netconf.o(i.LwIP_Periodic_Handle) refers to dhcp.o(i.dhcp_coarse_tmr) for dhcp_coarse_tmr
    netconf.o(i.LwIP_Periodic_Handle) refers to netconf.o(.data) for .data
    netconf.o(i.LwIP_Pkt_Handle) refers to ethernetif.o(i.ethernetif_input) for ethernetif_input
    netconf.o(i.LwIP_Pkt_Handle) refers to netconf.o(.bss) for .bss
    helloworld.o(i.HelloWorld_accept) refers to mem.o(i.mem_calloc) for mem_calloc
    helloworld.o(i.HelloWorld_accept) refers to tcp.o(i.tcp_arg) for tcp_arg
    helloworld.o(i.HelloWorld_accept) refers to tcp.o(i.tcp_err) for tcp_err
    helloworld.o(i.HelloWorld_accept) refers to tcp.o(i.tcp_recv) for tcp_recv
    helloworld.o(i.HelloWorld_accept) refers to tcp_out.o(i.tcp_write) for tcp_write
    helloworld.o(i.HelloWorld_accept) refers to helloworld.o(i.HelloWorld_conn_err) for HelloWorld_conn_err
    helloworld.o(i.HelloWorld_accept) refers to helloworld.o(i.HelloWorld_recv) for HelloWorld_recv
    helloworld.o(i.HelloWorld_conn_err) refers to mem.o(i.mem_free) for mem_free
    helloworld.o(i.HelloWorld_init) refers to tcp.o(i.tcp_new) for tcp_new
    helloworld.o(i.HelloWorld_init) refers to tcp.o(i.tcp_bind) for tcp_bind
    helloworld.o(i.HelloWorld_init) refers to tcp.o(i.tcp_listen_with_backlog) for tcp_listen_with_backlog
    helloworld.o(i.HelloWorld_init) refers to tcp.o(i.tcp_accept) for tcp_accept
    helloworld.o(i.HelloWorld_init) refers to ip_addr.o(.constdata) for ip_addr_any
    helloworld.o(i.HelloWorld_init) refers to helloworld.o(i.HelloWorld_accept) for HelloWorld_accept
    helloworld.o(i.HelloWorld_recv) refers to tcp.o(i.tcp_recved) for tcp_recved
    helloworld.o(i.HelloWorld_recv) refers to pbuf.o(i.pbuf_free) for pbuf_free
    helloworld.o(i.HelloWorld_recv) refers to tcp_out.o(i.tcp_write) for tcp_write
    helloworld.o(i.HelloWorld_recv) refers to mem.o(i.mem_free) for mem_free
    helloworld.o(i.HelloWorld_recv) refers to tcp.o(i.tcp_close) for tcp_close
    httpd.o(i.close_conn) refers to tcp.o(i.tcp_arg) for tcp_arg
    httpd.o(i.close_conn) refers to tcp.o(i.tcp_sent) for tcp_sent
    httpd.o(i.close_conn) refers to tcp.o(i.tcp_recv) for tcp_recv
    httpd.o(i.close_conn) refers to mem.o(i.mem_free) for mem_free
    httpd.o(i.close_conn) refers to tcp.o(i.tcp_close) for tcp_close
    httpd.o(i.conn_err) refers to mem.o(i.mem_free) for mem_free
    httpd.o(i.fs_open) refers to strcmpv7m.o(.text) for strcmp
    httpd.o(i.fs_open) refers to httpd.o(.constdata) for .constdata
    httpd.o(i.http_accept) refers to mem.o(i.mem_malloc) for mem_malloc
    httpd.o(i.http_accept) refers to tcp.o(i.tcp_arg) for tcp_arg
    httpd.o(i.http_accept) refers to tcp.o(i.tcp_recv) for tcp_recv
    httpd.o(i.http_accept) refers to tcp.o(i.tcp_err) for tcp_err
    httpd.o(i.http_accept) refers to tcp.o(i.tcp_poll) for tcp_poll
    httpd.o(i.http_accept) refers to httpd.o(i.http_recv) for http_recv
    httpd.o(i.http_accept) refers to httpd.o(i.conn_err) for conn_err
    httpd.o(i.http_accept) refers to httpd.o(i.http_poll) for http_poll
    httpd.o(i.http_poll) refers to httpd.o(i.send_data) for send_data
    httpd.o(i.http_poll) refers to tcp.o(i.tcp_close) for tcp_close
    httpd.o(i.http_recv) refers to tcp.o(i.tcp_recved) for tcp_recved
    httpd.o(i.http_recv) refers to pbuf.o(i.pbuf_free) for pbuf_free
    httpd.o(i.http_recv) refers to strncmp.o(.text) for strncmp
    httpd.o(i.http_recv) refers to httpd.o(i.close_conn) for close_conn
    httpd.o(i.http_recv) refers to stm32f10x_adc.o(i.ADC_GetConversionValue) for ADC_GetConversionValue
    httpd.o(i.http_recv) refers to stm32_eval.o(i.STM_EVAL_LEDOff) for STM_EVAL_LEDOff
    httpd.o(i.http_recv) refers to stm32_eval.o(i.STM_EVAL_LEDOn) for STM_EVAL_LEDOn
    httpd.o(i.http_recv) refers to httpd.o(i.fs_open) for fs_open
    httpd.o(i.http_recv) refers to httpd.o(i.send_data) for send_data
    httpd.o(i.http_recv) refers to tcp.o(i.tcp_sent) for tcp_sent
    httpd.o(i.http_recv) refers to httpd.o(.data) for .data
    httpd.o(i.http_recv) refers to httpd.o(i.http_sent) for http_sent
    httpd.o(i.http_sent) refers to httpd.o(i.send_data) for send_data
    httpd.o(i.http_sent) refers to httpd.o(i.close_conn) for close_conn
    httpd.o(i.httpd_init) refers to tcp.o(i.tcp_new) for tcp_new
    httpd.o(i.httpd_init) refers to tcp.o(i.tcp_bind) for tcp_bind
    httpd.o(i.httpd_init) refers to tcp.o(i.tcp_listen_with_backlog) for tcp_listen_with_backlog
    httpd.o(i.httpd_init) refers to tcp.o(i.tcp_accept) for tcp_accept
    httpd.o(i.httpd_init) refers to ip_addr.o(.constdata) for ip_addr_any
    httpd.o(i.httpd_init) refers to httpd.o(i.http_accept) for http_accept
    httpd.o(i.send_data) refers to tcp_out.o(i.tcp_write) for tcp_write
    httpd.o(.constdata) refers to httpd.o(.conststring) for .conststring
    httpd.o(.constdata) refers to httpd.o(.constdata) for data_images_ST_gif
    httpd.o(.constdata) refers to httpd.o(.constdata) for file_images_ST_gif
    httpd.o(.constdata) refers to httpd.o(.conststring) for .conststring
    httpd.o(.constdata) refers to httpd.o(.constdata) for data_images_stm32_newline__gif
    httpd.o(.constdata) refers to httpd.o(.constdata) for file_images_stm32_newline__gif
    httpd.o(.constdata) refers to httpd.o(.conststring) for .conststring
    httpd.o(.constdata) refers to httpd.o(.constdata) for data_STM32F107_html
    httpd.o(.constdata) refers to httpd.o(.data) for file_STM32F107ADC_html
    httpd.o(.constdata) refers to httpd.o(.conststring) for .conststring
    httpd.o(.constdata) refers to httpd.o(.constdata) for data_STM32F107LED_html
    httpd.o(.data) refers to httpd.o(.constdata) for file_STM32F107_html
    httpd.o(.data) refers to httpd.o(.conststring) for .conststring
    httpd.o(.data) refers to httpd.o(.data) for data_STM32F107ADC_html
    tftpserver.o(i.process_tftp_request) refers to tftputils.o(i.tftp_decode_op) for tftp_decode_op
    tftpserver.o(i.process_tftp_request) refers to udp.o(i.udp_new) for udp_new
    tftpserver.o(i.process_tftp_request) refers to udp.o(i.udp_bind) for udp_bind
    tftpserver.o(i.process_tftp_request) refers to tftpserver.o(i.tftp_send_error_message) for tftp_send_error_message
    tftpserver.o(i.process_tftp_request) refers to udp.o(i.udp_remove) for udp_remove
    tftpserver.o(i.process_tftp_request) refers to tftputils.o(i.tftp_extract_filename) for tftp_extract_filename
    tftpserver.o(i.process_tftp_request) refers to efs.o(i.efs_init) for efs_init
    tftpserver.o(i.process_tftp_request) refers to ls.o(i.ls_openDir) for ls_openDir
    tftpserver.o(i.process_tftp_request) refers to tftpserver.o(i.tftp_process_read) for tftp_process_read
    tftpserver.o(i.process_tftp_request) refers to tftpserver.o(i.tftp_process_write) for tftp_process_write
    tftpserver.o(i.process_tftp_request) refers to ip_addr.o(.constdata) for ip_addr_any
    tftpserver.o(i.process_tftp_request) refers to tftpserver.o(.bss) for .bss
    tftpserver.o(i.recv_callback_tftp) refers to tftpserver.o(i.process_tftp_request) for process_tftp_request
    tftpserver.o(i.recv_callback_tftp) refers to pbuf.o(i.pbuf_free) for pbuf_free
    tftpserver.o(i.rrq_recv_callback) refers to tftputils.o(i.tftp_is_correct_ack) for tftp_is_correct_ack
    tftpserver.o(i.rrq_recv_callback) refers to tftpserver.o(i.tftp_cleanup_rd) for tftp_cleanup_rd
    tftpserver.o(i.rrq_recv_callback) refers to pbuf.o(i.pbuf_free) for pbuf_free
    tftpserver.o(i.rrq_recv_callback) refers to tftpserver.o(i.tftp_send_next_block) for tftp_send_next_block
    tftpserver.o(i.tftp_cleanup_rd) refers to file.o(i.file_fclose) for file_fclose
    tftpserver.o(i.tftp_cleanup_rd) refers to fs.o(i.fs_umount) for fs_umount
    tftpserver.o(i.tftp_cleanup_rd) refers to mem.o(i.mem_free) for mem_free
    tftpserver.o(i.tftp_cleanup_rd) refers to udp.o(i.udp_disconnect) for udp_disconnect
    tftpserver.o(i.tftp_cleanup_rd) refers to udp.o(i.udp_remove) for udp_remove
    tftpserver.o(i.tftp_cleanup_rd) refers to udp.o(i.udp_recv) for udp_recv
    tftpserver.o(i.tftp_cleanup_rd) refers to tftpserver.o(.bss) for .bss
    tftpserver.o(i.tftp_cleanup_rd) refers to tftpserver.o(i.recv_callback_tftp) for recv_callback_tftp
    tftpserver.o(i.tftp_cleanup_rd) refers to tftpserver.o(.data) for .data
    tftpserver.o(i.tftp_cleanup_wr) refers to file.o(i.file_fclose) for file_fclose
    tftpserver.o(i.tftp_cleanup_wr) refers to fs.o(i.fs_umount) for fs_umount
    tftpserver.o(i.tftp_cleanup_wr) refers to mem.o(i.mem_free) for mem_free
    tftpserver.o(i.tftp_cleanup_wr) refers to udp.o(i.udp_disconnect) for udp_disconnect
    tftpserver.o(i.tftp_cleanup_wr) refers to udp.o(i.udp_remove) for udp_remove
    tftpserver.o(i.tftp_cleanup_wr) refers to udp.o(i.udp_recv) for udp_recv
    tftpserver.o(i.tftp_cleanup_wr) refers to tftpserver.o(.bss) for .bss
    tftpserver.o(i.tftp_cleanup_wr) refers to tftpserver.o(i.recv_callback_tftp) for recv_callback_tftp
    tftpserver.o(i.tftp_cleanup_wr) refers to tftpserver.o(.data) for .data
    tftpserver.o(i.tftp_construct_error_message) refers to tftputils.o(i.tftp_set_opcode) for tftp_set_opcode
    tftpserver.o(i.tftp_construct_error_message) refers to tftputils.o(i.tftp_set_errorcode) for tftp_set_errorcode
    tftpserver.o(i.tftp_construct_error_message) refers to tftputils.o(i.tftp_set_errormsg) for tftp_set_errormsg
    tftpserver.o(i.tftp_construct_error_message) refers to strlen.o(.text) for strlen
    tftpserver.o(i.tftp_construct_error_message) refers to tftpserver.o(.data) for .data
    tftpserver.o(i.tftp_process_read) refers to file.o(i.file_fopen) for file_fopen
    tftpserver.o(i.tftp_process_read) refers to mem.o(i.mem_malloc) for mem_malloc
    tftpserver.o(i.tftp_process_read) refers to udp.o(i.udp_recv) for udp_recv
    tftpserver.o(i.tftp_process_read) refers to tftpserver.o(i.tftp_send_next_block) for tftp_send_next_block
    tftpserver.o(i.tftp_process_read) refers to tftpserver.o(i.tftp_send_error_message) for tftp_send_error_message
    tftpserver.o(i.tftp_process_read) refers to tftpserver.o(i.tftp_cleanup_rd) for tftp_cleanup_rd
    tftpserver.o(i.tftp_process_read) refers to tftpserver.o(.bss) for .bss
    tftpserver.o(i.tftp_process_read) refers to tftpserver.o(i.rrq_recv_callback) for rrq_recv_callback
    tftpserver.o(i.tftp_process_write) refers to file.o(i.file_fopen) for file_fopen
    tftpserver.o(i.tftp_process_write) refers to mem.o(i.mem_malloc) for mem_malloc
    tftpserver.o(i.tftp_process_write) refers to udp.o(i.udp_recv) for udp_recv
    tftpserver.o(i.tftp_process_write) refers to tftpserver.o(i.tftp_send_ack_packet) for tftp_send_ack_packet
    tftpserver.o(i.tftp_process_write) refers to tftpserver.o(i.tftp_send_error_message) for tftp_send_error_message
    tftpserver.o(i.tftp_process_write) refers to tftpserver.o(i.tftp_cleanup_wr) for tftp_cleanup_wr
    tftpserver.o(i.tftp_process_write) refers to tftpserver.o(.bss) for .bss
    tftpserver.o(i.tftp_process_write) refers to tftpserver.o(i.wrq_recv_callback) for wrq_recv_callback
    tftpserver.o(i.tftp_send_ack_packet) refers to tftputils.o(i.tftp_set_opcode) for tftp_set_opcode
    tftpserver.o(i.tftp_send_ack_packet) refers to tftputils.o(i.tftp_set_block) for tftp_set_block
    tftpserver.o(i.tftp_send_ack_packet) refers to tftpserver.o(i.tftp_send_message) for tftp_send_message
    tftpserver.o(i.tftp_send_data_packet) refers to tftputils.o(i.tftp_set_opcode) for tftp_set_opcode
    tftpserver.o(i.tftp_send_data_packet) refers to tftputils.o(i.tftp_set_block) for tftp_set_block
    tftpserver.o(i.tftp_send_data_packet) refers to tftputils.o(i.tftp_set_data_message) for tftp_set_data_message
    tftpserver.o(i.tftp_send_data_packet) refers to tftpserver.o(i.tftp_send_message) for tftp_send_message
    tftpserver.o(i.tftp_send_error_message) refers to tftpserver.o(i.tftp_construct_error_message) for tftp_construct_error_message
    tftpserver.o(i.tftp_send_error_message) refers to tftpserver.o(i.tftp_send_message) for tftp_send_message
    tftpserver.o(i.tftp_send_message) refers to pbuf.o(i.pbuf_alloc) for pbuf_alloc
    tftpserver.o(i.tftp_send_message) refers to rt_memcpy_v6.o(.text) for __aeabi_memcpy
    tftpserver.o(i.tftp_send_message) refers to udp.o(i.udp_sendto) for udp_sendto
    tftpserver.o(i.tftp_send_message) refers to pbuf.o(i.pbuf_free) for pbuf_free
    tftpserver.o(i.tftp_send_next_block) refers to file.o(i.file_read) for file_read
    tftpserver.o(i.tftp_send_next_block) refers to tftpserver.o(i.tftp_send_data_packet) for tftp_send_data_packet
    tftpserver.o(i.tftp_send_next_block) refers to tftpserver.o(.bss) for .bss
    tftpserver.o(i.tftpd_init) refers to udp.o(i.udp_new) for udp_new
    tftpserver.o(i.tftpd_init) refers to udp.o(i.udp_bind) for udp_bind
    tftpserver.o(i.tftpd_init) refers to udp.o(i.udp_recv) for udp_recv
    tftpserver.o(i.tftpd_init) refers to tftpserver.o(.data) for .data
    tftpserver.o(i.tftpd_init) refers to ip_addr.o(.constdata) for ip_addr_any
    tftpserver.o(i.tftpd_init) refers to tftpserver.o(i.recv_callback_tftp) for recv_callback_tftp
    tftpserver.o(i.wrq_recv_callback) refers to tftputils.o(i.tftp_extract_block) for tftp_extract_block
    tftpserver.o(i.wrq_recv_callback) refers to file.o(i.file_write) for file_write
    tftpserver.o(i.wrq_recv_callback) refers to tftpserver.o(i.tftp_send_error_message) for tftp_send_error_message
    tftpserver.o(i.wrq_recv_callback) refers to tftpserver.o(i.tftp_cleanup_wr) for tftp_cleanup_wr
    tftpserver.o(i.wrq_recv_callback) refers to tftpserver.o(i.tftp_send_ack_packet) for tftp_send_ack_packet
    tftpserver.o(i.wrq_recv_callback) refers to pbuf.o(i.pbuf_free) for pbuf_free
    tftpserver.o(i.wrq_recv_callback) refers to tftpserver.o(.bss) for .bss
    tftpserver.o(.data) refers to tftpserver.o(.conststring) for .conststring
    tftputils.o(i.tftp_extract_block) refers to inet.o(i.ntohs) for ntohs
    tftputils.o(i.tftp_extract_filename) refers to strcpy.o(.text) for strcpy
    tftputils.o(i.tftp_is_correct_ack) refers to tftputils.o(i.tftp_extract_block) for tftp_extract_block
    tftputils.o(i.tftp_set_block) refers to inet.o(i.htons) for htons
    tftputils.o(i.tftp_set_data_message) refers to rt_memcpy_v6.o(.text) for __aeabi_memcpy
    tftputils.o(i.tftp_set_errormsg) refers to strcpy.o(.text) for strcpy
    client.o(i.client_init) refers to udp.o(i.udp_new) for udp_new
    client.o(i.client_init) refers to udp.o(i.udp_connect) for udp_connect
    client.o(i.client_init) refers to pbuf.o(i.pbuf_alloc) for pbuf_alloc
    client.o(i.client_init) refers to udp.o(i.udp_send) for udp_send
    client.o(i.client_init) refers to udp.o(i.udp_disconnect) for udp_disconnect
    client.o(i.client_init) refers to udp.o(i.udp_bind) for udp_bind
    client.o(i.client_init) refers to udp.o(i.udp_recv) for udp_recv
    client.o(i.client_init) refers to pbuf.o(i.pbuf_free) for pbuf_free
    client.o(i.client_init) refers to ip_addr.o(.constdata) for ip_addr_broadcast
    client.o(i.client_init) refers to ip_addr.o(.constdata) for ip_addr_any
    client.o(i.client_init) refers to client.o(i.udp_client_callback) for udp_client_callback
    client.o(i.tcp_client_connected) refers to stm3210c_eval_lcd.o(i.LCD_DisplayStringLine) for LCD_DisplayStringLine
    client.o(i.tcp_client_connected) refers to stm3210c_eval_lcd.o(i.LCD_SetTextColor) for LCD_SetTextColor
    client.o(i.tcp_client_connected) refers to stm3210c_eval_lcd.o(i.LCD_DrawRect) for LCD_DrawRect
    client.o(i.tcp_client_connected) refers to client.o(.data) for .data
    client.o(i.tcp_led_control) refers to tcp_out.o(i.tcp_write) for tcp_write
    client.o(i.tcp_led_control) refers to tcp_out.o(i.tcp_output) for tcp_output
    client.o(i.tcp_led_control) refers to client.o(.data) for .data
    client.o(i.udp_client_callback) refers to _printf_percent.o(.ARM.Collect$$_printf_percent$$00000000) for _printf_percent
    client.o(i.udp_client_callback) refers to _printf_d.o(.ARM.Collect$$_printf_percent$$00000009) for _printf_d
    client.o(i.udp_client_callback) refers to _printf_dec.o(.text) for _printf_int_dec
    client.o(i.udp_client_callback) refers to noretval__2sprintf.o(.text) for __2sprintf
    client.o(i.udp_client_callback) refers to stm3210c_eval_lcd.o(i.LCD_DisplayStringLine) for LCD_DisplayStringLine
    client.o(i.udp_client_callback) refers to tcp.o(i.tcp_new) for tcp_new
    client.o(i.udp_client_callback) refers to tcp.o(i.tcp_bind) for tcp_bind
    client.o(i.udp_client_callback) refers to tcp.o(i.tcp_connect) for tcp_connect
    client.o(i.udp_client_callback) refers to pbuf.o(i.pbuf_free) for pbuf_free
    client.o(i.udp_client_callback) refers to ip_addr.o(.constdata) for ip_addr_any
    client.o(i.udp_client_callback) refers to client.o(i.tcp_client_connected) for tcp_client_connected
    server.o(i.server_init) refers to udp.o(i.udp_new) for udp_new
    server.o(i.server_init) refers to udp.o(i.udp_bind) for udp_bind
    server.o(i.server_init) refers to udp.o(i.udp_recv) for udp_recv
    server.o(i.server_init) refers to ip_addr.o(.constdata) for ip_addr_any
    server.o(i.server_init) refers to server.o(i.udp_server_callback) for udp_server_callback
    server.o(i.tcp_server_accept) refers to tcp.o(i.tcp_recv) for tcp_recv
    server.o(i.tcp_server_accept) refers to server.o(i.tcp_server_recv) for tcp_server_recv
    server.o(i.tcp_server_recv) refers to stm32_eval.o(i.STM_EVAL_LEDToggle) for STM_EVAL_LEDToggle
    server.o(i.tcp_server_recv) refers to pbuf.o(i.pbuf_free) for pbuf_free
    server.o(i.udp_server_callback) refers to _printf_percent.o(.ARM.Collect$$_printf_percent$$00000000) for _printf_percent
    server.o(i.udp_server_callback) refers to _printf_d.o(.ARM.Collect$$_printf_percent$$00000009) for _printf_d
    server.o(i.udp_server_callback) refers to _printf_dec.o(.text) for _printf_int_dec
    server.o(i.udp_server_callback) refers to noretval__2sprintf.o(.text) for __2sprintf
    server.o(i.udp_server_callback) refers to stm3210c_eval_lcd.o(i.LCD_DisplayStringLine) for LCD_DisplayStringLine
    server.o(i.udp_server_callback) refers to udp.o(i.udp_connect) for udp_connect
    server.o(i.udp_server_callback) refers to udp.o(i.udp_send) for udp_send
    server.o(i.udp_server_callback) refers to udp.o(i.udp_disconnect) for udp_disconnect
    server.o(i.udp_server_callback) refers to udp.o(i.udp_bind) for udp_bind
    server.o(i.udp_server_callback) refers to udp.o(i.udp_recv) for udp_recv
    server.o(i.udp_server_callback) refers to tcp.o(i.tcp_new) for tcp_new
    server.o(i.udp_server_callback) refers to tcp.o(i.tcp_bind) for tcp_bind
    server.o(i.udp_server_callback) refers to tcp.o(i.tcp_listen_with_backlog) for tcp_listen_with_backlog
    server.o(i.udp_server_callback) refers to tcp.o(i.tcp_accept) for tcp_accept
    server.o(i.udp_server_callback) refers to tcp.o(i.tcp_close) for tcp_close
    server.o(i.udp_server_callback) refers to pbuf.o(i.pbuf_free) for pbuf_free
    server.o(i.udp_server_callback) refers to ip_addr.o(.constdata) for ip_addr_any
    server.o(i.udp_server_callback) refers to server.o(i.tcp_server_accept) for tcp_server_accept
    stm32f10x_usart.o(i.USART_DeInit) refers to stm32f10x_rcc.o(i.RCC_APB2PeriphResetCmd) for RCC_APB2PeriphResetCmd
    stm32f10x_usart.o(i.USART_DeInit) refers to stm32f10x_rcc.o(i.RCC_APB1PeriphResetCmd) for RCC_APB1PeriphResetCmd
    stm32f10x_usart.o(i.USART_Init) refers to stm32f10x_rcc.o(i.RCC_GetClocksFreq) for RCC_GetClocksFreq
    stm32f10x_gpio.o(i.GPIO_AFIODeInit) refers to stm32f10x_rcc.o(i.RCC_APB2PeriphResetCmd) for RCC_APB2PeriphResetCmd
    stm32f10x_gpio.o(i.GPIO_DeInit) refers to stm32f10x_rcc.o(i.RCC_APB2PeriphResetCmd) for RCC_APB2PeriphResetCmd
    stm32f10x_rcc.o(i.RCC_GetClocksFreq) refers to stm32f10x_rcc.o(.data) for .data
    stm32f10x_rcc.o(i.RCC_WaitForHSEStartUp) refers to stm32f10x_rcc.o(i.RCC_GetFlagStatus) for RCC_GetFlagStatus
    stm32f10x_spi.o(i.I2S_Init) refers to stm32f10x_rcc.o(i.RCC_GetClocksFreq) for RCC_GetClocksFreq
    stm32f10x_spi.o(i.SPI_I2S_DeInit) refers to stm32f10x_rcc.o(i.RCC_APB2PeriphResetCmd) for RCC_APB2PeriphResetCmd
    stm32f10x_spi.o(i.SPI_I2S_DeInit) refers to stm32f10x_rcc.o(i.RCC_APB1PeriphResetCmd) for RCC_APB1PeriphResetCmd
    stm32f10x_flash.o(i.FLASH_EnableWriteProtection) refers to stm32f10x_flash.o(i.FLASH_WaitForLastOperation) for FLASH_WaitForLastOperation
    stm32f10x_flash.o(i.FLASH_EraseAllPages) refers to stm32f10x_flash.o(i.FLASH_WaitForLastOperation) for FLASH_WaitForLastOperation
    stm32f10x_flash.o(i.FLASH_EraseOptionBytes) refers to stm32f10x_flash.o(i.FLASH_WaitForLastOperation) for FLASH_WaitForLastOperation
    stm32f10x_flash.o(i.FLASH_ErasePage) refers to stm32f10x_flash.o(i.FLASH_WaitForLastOperation) for FLASH_WaitForLastOperation
    stm32f10x_flash.o(i.FLASH_ProgramHalfWord) refers to stm32f10x_flash.o(i.FLASH_WaitForLastOperation) for FLASH_WaitForLastOperation
    stm32f10x_flash.o(i.FLASH_ProgramOptionByteData) refers to stm32f10x_flash.o(i.FLASH_WaitForLastOperation) for FLASH_WaitForLastOperation
    stm32f10x_flash.o(i.FLASH_ProgramWord) refers to stm32f10x_flash.o(i.FLASH_WaitForLastOperation) for FLASH_WaitForLastOperation
    stm32f10x_flash.o(i.FLASH_ReadOutProtection) refers to stm32f10x_flash.o(i.FLASH_WaitForLastOperation) for FLASH_WaitForLastOperation
    stm32f10x_flash.o(i.FLASH_UserOptionByteConfig) refers to stm32f10x_flash.o(i.FLASH_WaitForLastOperation) for FLASH_WaitForLastOperation
    stm32f10x_flash.o(i.FLASH_WaitForLastOperation) refers to stm32f10x_flash.o(i.FLASH_GetStatus) for FLASH_GetStatus
    stm32f10x_adc.o(i.ADC_DeInit) refers to stm32f10x_rcc.o(i.RCC_APB2PeriphResetCmd) for RCC_APB2PeriphResetCmd
    stm32f10x_tim.o(i.TIM_DeInit) refers to stm32f10x_rcc.o(i.RCC_APB1PeriphResetCmd) for RCC_APB1PeriphResetCmd
    stm32f10x_tim.o(i.TIM_DeInit) refers to stm32f10x_rcc.o(i.RCC_APB2PeriphResetCmd) for RCC_APB2PeriphResetCmd
    stm32f10x_tim.o(i.TIM_ETRClockMode1Config) refers to stm32f10x_tim.o(i.TIM_ETRConfig) for TIM_ETRConfig
    stm32f10x_tim.o(i.TIM_ETRClockMode2Config) refers to stm32f10x_tim.o(i.TIM_ETRConfig) for TIM_ETRConfig
    stm32f10x_tim.o(i.TIM_ICInit) refers to stm32f10x_tim.o(i.TIM_SetIC4Prescaler) for TIM_SetIC4Prescaler
    stm32f10x_tim.o(i.TIM_ICInit) refers to stm32f10x_tim.o(i.TI1_Config) for TI1_Config
    stm32f10x_tim.o(i.TIM_ICInit) refers to stm32f10x_tim.o(i.TIM_SetIC1Prescaler) for TIM_SetIC1Prescaler
    stm32f10x_tim.o(i.TIM_ICInit) refers to stm32f10x_tim.o(i.TI2_Config) for TI2_Config
    stm32f10x_tim.o(i.TIM_ICInit) refers to stm32f10x_tim.o(i.TIM_SetIC2Prescaler) for TIM_SetIC2Prescaler
    stm32f10x_tim.o(i.TIM_ICInit) refers to stm32f10x_tim.o(i.TIM_SetIC3Prescaler) for TIM_SetIC3Prescaler
    stm32f10x_tim.o(i.TIM_ITRxExternalClockConfig) refers to stm32f10x_tim.o(i.TIM_SelectInputTrigger) for TIM_SelectInputTrigger
    stm32f10x_tim.o(i.TIM_PWMIConfig) refers to stm32f10x_tim.o(i.TI2_Config) for TI2_Config
    stm32f10x_tim.o(i.TIM_PWMIConfig) refers to stm32f10x_tim.o(i.TIM_SetIC2Prescaler) for TIM_SetIC2Prescaler
    stm32f10x_tim.o(i.TIM_PWMIConfig) refers to stm32f10x_tim.o(i.TI1_Config) for TI1_Config
    stm32f10x_tim.o(i.TIM_PWMIConfig) refers to stm32f10x_tim.o(i.TIM_SetIC1Prescaler) for TIM_SetIC1Prescaler
    stm32f10x_tim.o(i.TIM_TIxExternalClockConfig) refers to stm32f10x_tim.o(i.TI1_Config) for TI1_Config
    stm32f10x_tim.o(i.TIM_TIxExternalClockConfig) refers to stm32f10x_tim.o(i.TIM_SelectInputTrigger) for TIM_SelectInputTrigger
    stm32f10x_tim.o(i.TIM_TIxExternalClockConfig) refers to stm32f10x_tim.o(i.TI2_Config) for TI2_Config
    stm32f10x_i2c.o(i.I2C_DeInit) refers to stm32f10x_rcc.o(i.RCC_APB1PeriphResetCmd) for RCC_APB1PeriphResetCmd
    stm32f10x_i2c.o(i.I2C_Init) refers to stm32f10x_rcc.o(i.RCC_GetClocksFreq) for RCC_GetClocksFreq
    stm32_eth.o(i.ETH_DMAPTPRxDescChainInit) refers to stm32_eth.o(.data) for .data
    stm32_eth.o(i.ETH_DMAPTPTxDescChainInit) refers to stm32_eth.o(.data) for .data
    stm32_eth.o(i.ETH_DMARxDescChainInit) refers to stm32_eth.o(.data) for .data
    stm32_eth.o(i.ETH_DMARxDescRingInit) refers to stm32_eth.o(.data) for .data
    stm32_eth.o(i.ETH_DMATxDescChainInit) refers to stm32_eth.o(.data) for .data
    stm32_eth.o(i.ETH_DMATxDescRingInit) refers to stm32_eth.o(.data) for .data
    stm32_eth.o(i.ETH_DeInit) refers to stm32f10x_rcc.o(i.RCC_AHBPeriphResetCmd) for RCC_AHBPeriphResetCmd
    stm32_eth.o(i.ETH_DropRxPkt) refers to stm32_eth.o(.data) for .data
    stm32_eth.o(i.ETH_GetRxPktSize) refers to stm32_eth.o(i.ETH_GetDMARxDescFrameLength) for ETH_GetDMARxDescFrameLength
    stm32_eth.o(i.ETH_GetRxPktSize) refers to stm32_eth.o(.data) for .data
    stm32_eth.o(i.ETH_HandlePTPRxPkt) refers to stm32_eth.o(.data) for .data
    stm32_eth.o(i.ETH_HandlePTPTxPkt) refers to stm32_eth.o(.data) for .data
    stm32_eth.o(i.ETH_HandleRxPkt) refers to stm32_eth.o(.data) for .data
    stm32_eth.o(i.ETH_HandleTxPkt) refers to stm32_eth.o(.data) for .data
    stm32_eth.o(i.ETH_Init) refers to stm32f10x_rcc.o(i.RCC_GetClocksFreq) for RCC_GetClocksFreq
    stm32_eth.o(i.ETH_Init) refers to stm32_eth.o(i.ETH_WritePHYRegister) for ETH_WritePHYRegister
    stm32_eth.o(i.ETH_Init) refers to stm32_eth.o(i.ETH_Delay) for ETH_Delay
    stm32_eth.o(i.ETH_Init) refers to stm32_eth.o(i.ETH_ReadPHYRegister) for ETH_ReadPHYRegister
    stm32_eth.o(i.ETH_PHYLoopBackCmd) refers to stm32_eth.o(i.ETH_ReadPHYRegister) for ETH_ReadPHYRegister
    stm32_eth.o(i.ETH_PHYLoopBackCmd) refers to stm32_eth.o(i.ETH_WritePHYRegister) for ETH_WritePHYRegister
    stm32_eth.o(i.ETH_Start) refers to stm32_eth.o(i.ETH_MACTransmissionCmd) for ETH_MACTransmissionCmd
    stm32_eth.o(i.ETH_Start) refers to stm32_eth.o(i.ETH_FlushTransmitFIFO) for ETH_FlushTransmitFIFO
    stm32_eth.o(i.ETH_Start) refers to stm32_eth.o(i.ETH_MACReceptionCmd) for ETH_MACReceptionCmd
    stm32_eth.o(i.ETH_Start) refers to stm32_eth.o(i.ETH_DMATransmissionCmd) for ETH_DMATransmissionCmd
    stm32_eth.o(i.ETH_Start) refers to stm32_eth.o(i.ETH_DMAReceptionCmd) for ETH_DMAReceptionCmd
    stm3210c_eval_ioe.o(i.I2C_ReadDataBuffer) refers to stm32f10x_i2c.o(i.I2C_Cmd) for I2C_Cmd
    stm3210c_eval_ioe.o(i.I2C_ReadDataBuffer) refers to stm32f10x_i2c.o(i.I2C_SoftwareResetCmd) for I2C_SoftwareResetCmd
    stm3210c_eval_ioe.o(i.I2C_ReadDataBuffer) refers to stm3210c_eval_ioe.o(i.IOE_I2C_Config) for IOE_I2C_Config
    stm3210c_eval_ioe.o(i.I2C_ReadDataBuffer) refers to stm32f10x_i2c.o(i.I2C_GenerateSTART) for I2C_GenerateSTART
    stm3210c_eval_ioe.o(i.I2C_ReadDataBuffer) refers to stm32f10x_i2c.o(i.I2C_CheckEvent) for I2C_CheckEvent
    stm3210c_eval_ioe.o(i.I2C_ReadDataBuffer) refers to stm32f10x_i2c.o(i.I2C_Send7bitAddress) for I2C_Send7bitAddress
    stm3210c_eval_ioe.o(i.I2C_ReadDataBuffer) refers to stm32f10x_i2c.o(i.I2C_SendData) for I2C_SendData
    stm3210c_eval_ioe.o(i.I2C_ReadDataBuffer) refers to stm32f10x_i2c.o(i.I2C_AcknowledgeConfig) for I2C_AcknowledgeConfig
    stm3210c_eval_ioe.o(i.I2C_ReadDataBuffer) refers to stm32f10x_i2c.o(i.I2C_GenerateSTOP) for I2C_GenerateSTOP
    stm3210c_eval_ioe.o(i.I2C_ReadDataBuffer) refers to stm32f10x_i2c.o(i.I2C_ReceiveData) for I2C_ReceiveData
    stm3210c_eval_ioe.o(i.I2C_ReadDataBuffer) refers to stm3210c_eval_ioe.o(.data) for .data
    stm3210c_eval_ioe.o(i.I2C_ReadDeviceRegister) refers to stm32f10x_i2c.o(i.I2C_Cmd) for I2C_Cmd
    stm3210c_eval_ioe.o(i.I2C_ReadDeviceRegister) refers to stm32f10x_i2c.o(i.I2C_SoftwareResetCmd) for I2C_SoftwareResetCmd
    stm3210c_eval_ioe.o(i.I2C_ReadDeviceRegister) refers to stm3210c_eval_ioe.o(i.IOE_I2C_Config) for IOE_I2C_Config
    stm3210c_eval_ioe.o(i.I2C_ReadDeviceRegister) refers to stm32f10x_i2c.o(i.I2C_GenerateSTART) for I2C_GenerateSTART
    stm3210c_eval_ioe.o(i.I2C_ReadDeviceRegister) refers to stm32f10x_i2c.o(i.I2C_CheckEvent) for I2C_CheckEvent
    stm3210c_eval_ioe.o(i.I2C_ReadDeviceRegister) refers to stm32f10x_i2c.o(i.I2C_AcknowledgeConfig) for I2C_AcknowledgeConfig
    stm3210c_eval_ioe.o(i.I2C_ReadDeviceRegister) refers to stm32f10x_i2c.o(i.I2C_Send7bitAddress) for I2C_Send7bitAddress
    stm3210c_eval_ioe.o(i.I2C_ReadDeviceRegister) refers to stm32f10x_i2c.o(i.I2C_SendData) for I2C_SendData
    stm3210c_eval_ioe.o(i.I2C_ReadDeviceRegister) refers to stm32f10x_i2c.o(i.I2C_GenerateSTOP) for I2C_GenerateSTOP
    stm3210c_eval_ioe.o(i.I2C_ReadDeviceRegister) refers to stm32f10x_i2c.o(i.I2C_ReceiveData) for I2C_ReceiveData
    stm3210c_eval_ioe.o(i.I2C_ReadDeviceRegister) refers to stm3210c_eval_ioe.o(.data) for .data
    stm3210c_eval_ioe.o(i.I2C_WriteDeviceRegister) refers to stm32f10x_i2c.o(i.I2C_SoftwareResetCmd) for I2C_SoftwareResetCmd
    stm3210c_eval_ioe.o(i.I2C_WriteDeviceRegister) refers to stm32f10x_i2c.o(i.I2C_Cmd) for I2C_Cmd
    stm3210c_eval_ioe.o(i.I2C_WriteDeviceRegister) refers to stm3210c_eval_ioe.o(i.IOE_I2C_Config) for IOE_I2C_Config
    stm3210c_eval_ioe.o(i.I2C_WriteDeviceRegister) refers to stm32f10x_i2c.o(i.I2C_GenerateSTART) for I2C_GenerateSTART
    stm3210c_eval_ioe.o(i.I2C_WriteDeviceRegister) refers to stm32f10x_i2c.o(i.I2C_CheckEvent) for I2C_CheckEvent
    stm3210c_eval_ioe.o(i.I2C_WriteDeviceRegister) refers to stm32f10x_i2c.o(i.I2C_Send7bitAddress) for I2C_Send7bitAddress
    stm3210c_eval_ioe.o(i.I2C_WriteDeviceRegister) refers to stm32f10x_i2c.o(i.I2C_SendData) for I2C_SendData
    stm3210c_eval_ioe.o(i.I2C_WriteDeviceRegister) refers to stm32f10x_i2c.o(i.I2C_GenerateSTOP) for I2C_GenerateSTOP
    stm3210c_eval_ioe.o(i.I2C_WriteDeviceRegister) refers to stm3210c_eval_ioe.o(.data) for .data
    stm3210c_eval_ioe.o(i.IOE_ClearGITPending) refers to stm3210c_eval_ioe.o(i.I2C_WriteDeviceRegister) for I2C_WriteDeviceRegister
    stm3210c_eval_ioe.o(i.IOE_ClearIOITPending) refers to stm3210c_eval_ioe.o(i.I2C_WriteDeviceRegister) for I2C_WriteDeviceRegister
    stm3210c_eval_ioe.o(i.IOE_Config) refers to stm32f10x_rcc.o(i.RCC_APB1PeriphClockCmd) for RCC_APB1PeriphClockCmd
    stm3210c_eval_ioe.o(i.IOE_Config) refers to stm32f10x_rcc.o(i.RCC_APB2PeriphClockCmd) for RCC_APB2PeriphClockCmd
    stm3210c_eval_ioe.o(i.IOE_Config) refers to stm32f10x_rcc.o(i.RCC_APB1PeriphResetCmd) for RCC_APB1PeriphResetCmd
    stm3210c_eval_ioe.o(i.IOE_Config) refers to stm32f10x_gpio.o(i.GPIO_Init) for GPIO_Init
    stm3210c_eval_ioe.o(i.IOE_Config) refers to stm32f10x_gpio.o(i.GPIO_EXTILineConfig) for GPIO_EXTILineConfig
    stm3210c_eval_ioe.o(i.IOE_Config) refers to stm3210c_eval_ioe.o(i.IOE_IsOperational) for IOE_IsOperational
    stm3210c_eval_ioe.o(i.IOE_Config) refers to stm3210c_eval_ioe.o(i.IOE_Reset) for IOE_Reset
    stm3210c_eval_ioe.o(i.IOE_Config) refers to stm3210c_eval_ioe.o(i.IOE_FnctCmd) for IOE_FnctCmd
    stm3210c_eval_ioe.o(i.IOE_Config) refers to stm3210c_eval_ioe.o(i.IOE_IOPinConfig) for IOE_IOPinConfig
    stm3210c_eval_ioe.o(i.IOE_Config) refers to stm3210c_eval_ioe.o(i.IOE_IOAFConfig) for IOE_IOAFConfig
    stm3210c_eval_ioe.o(i.IOE_Config) refers to stm3210c_eval_ioe.o(i.IOE_WriteIOPin) for IOE_WriteIOPin
    stm3210c_eval_ioe.o(i.IOE_Config) refers to stm3210c_eval_ioe.o(i.IOE_IOEdgeConfig) for IOE_IOEdgeConfig
    stm3210c_eval_ioe.o(i.IOE_Config) refers to stm3210c_eval_ioe.o(i.IOE_TS_Config) for IOE_TS_Config
    stm3210c_eval_ioe.o(i.IOE_Config) refers to stm3210c_eval_ioe.o(i.IOE_TempSens_Config) for IOE_TempSens_Config
    stm3210c_eval_ioe.o(i.IOE_FnctCmd) refers to stm3210c_eval_ioe.o(i.I2C_ReadDeviceRegister) for I2C_ReadDeviceRegister
    stm3210c_eval_ioe.o(i.IOE_FnctCmd) refers to stm3210c_eval_ioe.o(i.I2C_WriteDeviceRegister) for I2C_WriteDeviceRegister
    stm3210c_eval_ioe.o(i.IOE_GITCmd) refers to stm3210c_eval_ioe.o(i.I2C_ReadDeviceRegister) for I2C_ReadDeviceRegister
    stm3210c_eval_ioe.o(i.IOE_GITCmd) refers to stm3210c_eval_ioe.o(i.I2C_WriteDeviceRegister) for I2C_WriteDeviceRegister
    stm3210c_eval_ioe.o(i.IOE_GITConfig) refers to stm3210c_eval_ioe.o(i.I2C_ReadDeviceRegister) for I2C_ReadDeviceRegister
    stm3210c_eval_ioe.o(i.IOE_GITConfig) refers to stm3210c_eval_ioe.o(i.I2C_WriteDeviceRegister) for I2C_WriteDeviceRegister
    stm3210c_eval_ioe.o(i.IOE_GetGITStatus) refers to stm3210c_eval_ioe.o(i.I2C_ReadDeviceRegister) for I2C_ReadDeviceRegister
    stm3210c_eval_ioe.o(i.IOE_GetIOITStatus) refers to stm3210c_eval_ioe.o(i.I2C_ReadDeviceRegister) for I2C_ReadDeviceRegister
    stm3210c_eval_ioe.o(i.IOE_I2C_Config) refers to stm32f10x_i2c.o(i.I2C_Init) for I2C_Init
    stm3210c_eval_ioe.o(i.IOE_IOAFConfig) refers to stm3210c_eval_ioe.o(i.I2C_ReadDeviceRegister) for I2C_ReadDeviceRegister
    stm3210c_eval_ioe.o(i.IOE_IOAFConfig) refers to stm3210c_eval_ioe.o(i.I2C_WriteDeviceRegister) for I2C_WriteDeviceRegister
    stm3210c_eval_ioe.o(i.IOE_IOEdgeConfig) refers to stm3210c_eval_ioe.o(i.I2C_ReadDeviceRegister) for I2C_ReadDeviceRegister
    stm3210c_eval_ioe.o(i.IOE_IOEdgeConfig) refers to stm3210c_eval_ioe.o(i.I2C_WriteDeviceRegister) for I2C_WriteDeviceRegister
    stm3210c_eval_ioe.o(i.IOE_IOITConfig) refers to stm3210c_eval_ioe.o(i.I2C_ReadDeviceRegister) for I2C_ReadDeviceRegister
    stm3210c_eval_ioe.o(i.IOE_IOITConfig) refers to stm3210c_eval_ioe.o(i.I2C_WriteDeviceRegister) for I2C_WriteDeviceRegister
    stm3210c_eval_ioe.o(i.IOE_IOPinConfig) refers to stm3210c_eval_ioe.o(i.I2C_ReadDeviceRegister) for I2C_ReadDeviceRegister
    stm3210c_eval_ioe.o(i.IOE_IOPinConfig) refers to stm3210c_eval_ioe.o(i.I2C_WriteDeviceRegister) for I2C_WriteDeviceRegister
    stm3210c_eval_ioe.o(i.IOE_ITConfig) refers to stm3210c_eval_ioe.o(i.IOE_ITOutConfig) for IOE_ITOutConfig
    stm3210c_eval_ioe.o(i.IOE_ITConfig) refers to stm3210c_eval_ioe.o(i.IOE_GITCmd) for IOE_GITCmd
    stm3210c_eval_ioe.o(i.IOE_ITConfig) refers to stm3210c_eval_ioe.o(i.IOE_IOITConfig) for IOE_IOITConfig
    stm3210c_eval_ioe.o(i.IOE_ITConfig) refers to stm3210c_eval_ioe.o(i.IOE_GITConfig) for IOE_GITConfig
    stm3210c_eval_ioe.o(i.IOE_ITConfig) refers to stm3210c_eval_ioe.o(i.I2C_ReadDeviceRegister) for I2C_ReadDeviceRegister
    stm3210c_eval_ioe.o(i.IOE_ITConfig) refers to stm32f10x_rcc.o(i.RCC_APB2PeriphClockCmd) for RCC_APB2PeriphClockCmd
    stm3210c_eval_ioe.o(i.IOE_ITConfig) refers to stm32f10x_gpio.o(i.GPIO_Init) for GPIO_Init
    stm3210c_eval_ioe.o(i.IOE_ITConfig) refers to stm32f10x_gpio.o(i.GPIO_EXTILineConfig) for GPIO_EXTILineConfig
    stm3210c_eval_ioe.o(i.IOE_ITConfig) refers to stm32f10x_exti.o(i.EXTI_Init) for EXTI_Init
    stm3210c_eval_ioe.o(i.IOE_ITConfig) refers to misc.o(i.NVIC_Init) for NVIC_Init
    stm3210c_eval_ioe.o(i.IOE_ITOutConfig) refers to stm3210c_eval_ioe.o(i.I2C_ReadDeviceRegister) for I2C_ReadDeviceRegister
    stm3210c_eval_ioe.o(i.IOE_ITOutConfig) refers to stm3210c_eval_ioe.o(i.I2C_WriteDeviceRegister) for I2C_WriteDeviceRegister
    stm3210c_eval_ioe.o(i.IOE_IsOperational) refers to stm3210c_eval_ioe.o(i.IOE_ReadID) for IOE_ReadID
    stm3210c_eval_ioe.o(i.IOE_IsOperational) refers to stm3210c_eval_ioe.o(.data) for .data
    stm3210c_eval_ioe.o(i.IOE_JoyStickGetState) refers to stm3210c_eval_ioe.o(i.I2C_ReadDeviceRegister) for I2C_ReadDeviceRegister
    stm3210c_eval_ioe.o(i.IOE_ReadID) refers to stm3210c_eval_ioe.o(i.I2C_ReadDeviceRegister) for I2C_ReadDeviceRegister
    stm3210c_eval_ioe.o(i.IOE_ReadIOPin) refers to stm3210c_eval_ioe.o(i.I2C_ReadDeviceRegister) for I2C_ReadDeviceRegister
    stm3210c_eval_ioe.o(i.IOE_Reset) refers to stm3210c_eval_ioe.o(i.I2C_WriteDeviceRegister) for I2C_WriteDeviceRegister
    stm3210c_eval_ioe.o(i.IOE_Reset) refers to stm3210c_eval_ioe.o(i.delay) for delay
    stm3210c_eval_ioe.o(i.IOE_TS_Config) refers to stm3210c_eval_ioe.o(i.I2C_ReadDeviceRegister) for I2C_ReadDeviceRegister
    stm3210c_eval_ioe.o(i.IOE_TS_Config) refers to stm3210c_eval_ioe.o(i.I2C_WriteDeviceRegister) for I2C_WriteDeviceRegister
    stm3210c_eval_ioe.o(i.IOE_TS_Config) refers to stm3210c_eval_ioe.o(i.delay) for delay
    stm3210c_eval_ioe.o(i.IOE_TS_Config) refers to stm3210c_eval_ioe.o(.data) for .data
    stm3210c_eval_ioe.o(i.IOE_TS_GetState) refers to stm3210c_eval_ioe.o(i.I2C_ReadDeviceRegister) for I2C_ReadDeviceRegister
    stm3210c_eval_ioe.o(i.IOE_TS_GetState) refers to stm3210c_eval_ioe.o(i.I2C_ReadDataBuffer) for I2C_ReadDataBuffer
    stm3210c_eval_ioe.o(i.IOE_TS_GetState) refers to stm3210c_eval_ioe.o(i.I2C_WriteDeviceRegister) for I2C_WriteDeviceRegister
    stm3210c_eval_ioe.o(i.IOE_TS_GetState) refers to stm3210c_eval_ioe.o(.data) for .data
    stm3210c_eval_ioe.o(i.IOE_TempSens_Config) refers to stm3210c_eval_ioe.o(i.I2C_ReadDeviceRegister) for I2C_ReadDeviceRegister
    stm3210c_eval_ioe.o(i.IOE_TempSens_Config) refers to stm3210c_eval_ioe.o(i.I2C_WriteDeviceRegister) for I2C_WriteDeviceRegister
    stm3210c_eval_ioe.o(i.IOE_TempSens_GetData) refers to stm3210c_eval_ioe.o(i.I2C_WriteDeviceRegister) for I2C_WriteDeviceRegister
    stm3210c_eval_ioe.o(i.IOE_TempSens_GetData) refers to stm3210c_eval_ioe.o(i.I2C_ReadDeviceRegister) for I2C_ReadDeviceRegister
    stm3210c_eval_ioe.o(i.IOE_TempSens_GetData) refers to stm3210c_eval_ioe.o(.data) for .data
    stm3210c_eval_ioe.o(i.IOE_WriteIOPin) refers to stm3210c_eval_ioe.o(i.I2C_WriteDeviceRegister) for I2C_WriteDeviceRegister
    stm32_eval.o(i.STM_EVAL_COMInit) refers to stm32f10x_rcc.o(i.RCC_APB2PeriphClockCmd) for RCC_APB2PeriphClockCmd
    stm32_eval.o(i.STM_EVAL_COMInit) refers to stm32f10x_gpio.o(i.GPIO_PinRemapConfig) for GPIO_PinRemapConfig
    stm32_eval.o(i.STM_EVAL_COMInit) refers to stm32f10x_rcc.o(i.RCC_APB1PeriphClockCmd) for RCC_APB1PeriphClockCmd
    stm32_eval.o(i.STM_EVAL_COMInit) refers to stm32f10x_gpio.o(i.GPIO_Init) for GPIO_Init
    stm32_eval.o(i.STM_EVAL_COMInit) refers to stm32f10x_usart.o(i.USART_Init) for USART_Init
    stm32_eval.o(i.STM_EVAL_COMInit) refers to stm32f10x_usart.o(i.USART_Cmd) for USART_Cmd
    stm32_eval.o(i.STM_EVAL_COMInit) refers to stm32_eval.o(.constdata) for .constdata
    stm32_eval.o(i.STM_EVAL_COMInit) refers to stm32_eval.o(.data) for .data
    stm32_eval.o(i.STM_EVAL_LEDInit) refers to stm32f10x_rcc.o(i.RCC_APB2PeriphClockCmd) for RCC_APB2PeriphClockCmd
    stm32_eval.o(i.STM_EVAL_LEDInit) refers to stm32f10x_gpio.o(i.GPIO_Init) for GPIO_Init
    stm32_eval.o(i.STM_EVAL_LEDInit) refers to stm32_eval.o(.constdata) for .constdata
    stm32_eval.o(i.STM_EVAL_LEDInit) refers to stm32_eval.o(.data) for .data
    stm32_eval.o(i.STM_EVAL_LEDOff) refers to stm32_eval.o(.constdata) for .constdata
    stm32_eval.o(i.STM_EVAL_LEDOff) refers to stm32_eval.o(.data) for .data
    stm32_eval.o(i.STM_EVAL_LEDOn) refers to stm32_eval.o(.constdata) for .constdata
    stm32_eval.o(i.STM_EVAL_LEDOn) refers to stm32_eval.o(.data) for .data
    stm32_eval.o(i.STM_EVAL_LEDToggle) refers to stm32_eval.o(.data) for .data
    stm32_eval.o(i.STM_EVAL_LEDToggle) refers to stm32_eval.o(.constdata) for .constdata
    stm32_eval.o(i.STM_EVAL_PBGetState) refers to stm32f10x_gpio.o(i.GPIO_ReadInputDataBit) for GPIO_ReadInputDataBit
    stm32_eval.o(i.STM_EVAL_PBGetState) refers to stm32_eval.o(.constdata) for .constdata
    stm32_eval.o(i.STM_EVAL_PBGetState) refers to stm32_eval.o(.data) for .data
    stm32_eval.o(i.STM_EVAL_PBInit) refers to stm32f10x_rcc.o(i.RCC_APB2PeriphClockCmd) for RCC_APB2PeriphClockCmd
    stm32_eval.o(i.STM_EVAL_PBInit) refers to stm32f10x_gpio.o(i.GPIO_Init) for GPIO_Init
    stm32_eval.o(i.STM_EVAL_PBInit) refers to stm32f10x_gpio.o(i.GPIO_EXTILineConfig) for GPIO_EXTILineConfig
    stm32_eval.o(i.STM_EVAL_PBInit) refers to stm32f10x_exti.o(i.EXTI_Init) for EXTI_Init
    stm32_eval.o(i.STM_EVAL_PBInit) refers to misc.o(i.NVIC_Init) for NVIC_Init
    stm32_eval.o(i.STM_EVAL_PBInit) refers to stm32_eval.o(.constdata) for .constdata
    stm32_eval.o(i.STM_EVAL_PBInit) refers to stm32_eval.o(.data) for .data
    stm3210c_eval_lcd.o(i.LCD_Clear) refers to stm3210c_eval_lcd.o(i.LCD_SetCursor) for LCD_SetCursor
    stm3210c_eval_lcd.o(i.LCD_Clear) refers to stm3210c_eval_lcd.o(i.LCD_WriteRAM_Prepare) for LCD_WriteRAM_Prepare
    stm3210c_eval_lcd.o(i.LCD_Clear) refers to stm3210c_eval_lcd.o(i.LCD_WriteRAM) for LCD_WriteRAM
    stm3210c_eval_lcd.o(i.LCD_Clear) refers to stm3210c_eval_lcd.o(i.LCD_CtrlLinesWrite) for LCD_CtrlLinesWrite
    stm3210c_eval_lcd.o(i.LCD_ClearLine) refers to stm3210c_eval_lcd.o(i.LCD_DisplayStringLine) for LCD_DisplayStringLine
    stm3210c_eval_lcd.o(i.LCD_CtrlLinesConfig) refers to stm32f10x_rcc.o(i.RCC_APB2PeriphClockCmd) for RCC_APB2PeriphClockCmd
    stm3210c_eval_lcd.o(i.LCD_CtrlLinesConfig) refers to stm32f10x_gpio.o(i.GPIO_Init) for GPIO_Init
    stm3210c_eval_lcd.o(i.LCD_CtrlLinesWrite) refers to stm32f10x_gpio.o(i.GPIO_WriteBit) for GPIO_WriteBit
    stm3210c_eval_lcd.o(i.LCD_DisplayChar) refers to stm3210c_eval_lcd.o(i.LCD_DrawChar) for LCD_DrawChar
    stm3210c_eval_lcd.o(i.LCD_DisplayChar) refers to stm3210c_eval_lcd.o(.constdata) for .constdata
    stm3210c_eval_lcd.o(i.LCD_DisplayOff) refers to stm3210c_eval_lcd.o(i.LCD_WriteReg) for LCD_WriteReg
    stm3210c_eval_lcd.o(i.LCD_DisplayOn) refers to stm3210c_eval_lcd.o(i.LCD_WriteReg) for LCD_WriteReg
    stm3210c_eval_lcd.o(i.LCD_DisplayStringLine) refers to stm3210c_eval_lcd.o(i.LCD_DisplayChar) for LCD_DisplayChar
    stm3210c_eval_lcd.o(i.LCD_DrawChar) refers to stm3210c_eval_lcd.o(i.LCD_SetCursor) for LCD_SetCursor
    stm3210c_eval_lcd.o(i.LCD_DrawChar) refers to stm3210c_eval_lcd.o(i.LCD_WriteRAM_Prepare) for LCD_WriteRAM_Prepare
    stm3210c_eval_lcd.o(i.LCD_DrawChar) refers to stm3210c_eval_lcd.o(i.LCD_WriteRAM) for LCD_WriteRAM
    stm3210c_eval_lcd.o(i.LCD_DrawChar) refers to stm3210c_eval_lcd.o(i.LCD_CtrlLinesWrite) for LCD_CtrlLinesWrite
    stm3210c_eval_lcd.o(i.LCD_DrawChar) refers to stm3210c_eval_lcd.o(.data) for .data
    stm3210c_eval_lcd.o(i.LCD_DrawCircle) refers to stm3210c_eval_lcd.o(i.LCD_SetCursor) for LCD_SetCursor
    stm3210c_eval_lcd.o(i.LCD_DrawCircle) refers to stm3210c_eval_lcd.o(i.LCD_WriteRAMWord) for LCD_WriteRAMWord
    stm3210c_eval_lcd.o(i.LCD_DrawCircle) refers to stm3210c_eval_lcd.o(.data) for .data
    stm3210c_eval_lcd.o(i.LCD_DrawLine) refers to stm3210c_eval_lcd.o(i.LCD_SetCursor) for LCD_SetCursor
    stm3210c_eval_lcd.o(i.LCD_DrawLine) refers to stm3210c_eval_lcd.o(i.LCD_WriteRAM_Prepare) for LCD_WriteRAM_Prepare
    stm3210c_eval_lcd.o(i.LCD_DrawLine) refers to stm3210c_eval_lcd.o(i.LCD_WriteRAM) for LCD_WriteRAM
    stm3210c_eval_lcd.o(i.LCD_DrawLine) refers to stm3210c_eval_lcd.o(i.LCD_CtrlLinesWrite) for LCD_CtrlLinesWrite
    stm3210c_eval_lcd.o(i.LCD_DrawLine) refers to stm3210c_eval_lcd.o(i.LCD_WriteRAMWord) for LCD_WriteRAMWord
    stm3210c_eval_lcd.o(i.LCD_DrawLine) refers to stm3210c_eval_lcd.o(.data) for .data
    stm3210c_eval_lcd.o(i.LCD_DrawMonoPict) refers to stm3210c_eval_lcd.o(i.LCD_SetCursor) for LCD_SetCursor
    stm3210c_eval_lcd.o(i.LCD_DrawMonoPict) refers to stm3210c_eval_lcd.o(i.LCD_WriteRAM_Prepare) for LCD_WriteRAM_Prepare
    stm3210c_eval_lcd.o(i.LCD_DrawMonoPict) refers to stm3210c_eval_lcd.o(i.LCD_WriteRAM) for LCD_WriteRAM
    stm3210c_eval_lcd.o(i.LCD_DrawMonoPict) refers to stm3210c_eval_lcd.o(i.LCD_CtrlLinesWrite) for LCD_CtrlLinesWrite
    stm3210c_eval_lcd.o(i.LCD_DrawMonoPict) refers to stm3210c_eval_lcd.o(.data) for .data
    stm3210c_eval_lcd.o(i.LCD_DrawRect) refers to stm3210c_eval_lcd.o(i.LCD_DrawLine) for LCD_DrawLine
    stm3210c_eval_lcd.o(i.LCD_PowerOn) refers to stm3210c_eval_lcd.o(i.LCD_WriteReg) for LCD_WriteReg
    stm3210c_eval_lcd.o(i.LCD_PowerOn) refers to stm3210c_eval_lcd.o(i.delay) for delay
    stm3210c_eval_lcd.o(i.LCD_ReadReg) refers to stm3210c_eval_lcd.o(i.LCD_WriteRegIndex) for LCD_WriteRegIndex
    stm3210c_eval_lcd.o(i.LCD_ReadReg) refers to stm3210c_eval_lcd.o(i.LCD_nCS_StartByte) for LCD_nCS_StartByte
    stm3210c_eval_lcd.o(i.LCD_ReadReg) refers to stm32f10x_spi.o(i.SPI_I2S_SendData) for SPI_I2S_SendData
    stm3210c_eval_lcd.o(i.LCD_ReadReg) refers to stm32f10x_spi.o(i.SPI_I2S_GetFlagStatus) for SPI_I2S_GetFlagStatus
    stm3210c_eval_lcd.o(i.LCD_ReadReg) refers to stm32f10x_spi.o(i.SPI_I2S_ReceiveData) for SPI_I2S_ReceiveData
    stm3210c_eval_lcd.o(i.LCD_ReadReg) refers to stm3210c_eval_lcd.o(i.LCD_CtrlLinesWrite) for LCD_CtrlLinesWrite
    stm3210c_eval_lcd.o(i.LCD_SPIConfig) refers to stm32f10x_rcc.o(i.RCC_APB2PeriphClockCmd) for RCC_APB2PeriphClockCmd
    stm3210c_eval_lcd.o(i.LCD_SPIConfig) refers to stm32f10x_gpio.o(i.GPIO_PinRemapConfig) for GPIO_PinRemapConfig
    stm3210c_eval_lcd.o(i.LCD_SPIConfig) refers to stm32f10x_rcc.o(i.RCC_APB1PeriphClockCmd) for RCC_APB1PeriphClockCmd
    stm3210c_eval_lcd.o(i.LCD_SPIConfig) refers to stm32f10x_gpio.o(i.GPIO_Init) for GPIO_Init
    stm3210c_eval_lcd.o(i.LCD_SPIConfig) refers to stm32f10x_spi.o(i.SPI_I2S_DeInit) for SPI_I2S_DeInit
    stm3210c_eval_lcd.o(i.LCD_SPIConfig) refers to stm32f10x_spi.o(i.SPI_Init) for SPI_Init
    stm3210c_eval_lcd.o(i.LCD_SPIConfig) refers to stm32f10x_spi.o(i.SPI_Cmd) for SPI_Cmd
    stm3210c_eval_lcd.o(i.LCD_SetBackColor) refers to stm3210c_eval_lcd.o(.data) for .data
    stm3210c_eval_lcd.o(i.LCD_SetCursor) refers to stm3210c_eval_lcd.o(i.LCD_WriteReg) for LCD_WriteReg
    stm3210c_eval_lcd.o(i.LCD_SetDisplayWindow) refers to stm3210c_eval_lcd.o(i.LCD_WriteReg) for LCD_WriteReg
    stm3210c_eval_lcd.o(i.LCD_SetDisplayWindow) refers to stm3210c_eval_lcd.o(i.LCD_SetCursor) for LCD_SetCursor
    stm3210c_eval_lcd.o(i.LCD_SetTextColor) refers to stm3210c_eval_lcd.o(.data) for .data
    stm3210c_eval_lcd.o(i.LCD_Setup) refers to stm3210c_eval_lcd.o(i.LCD_CtrlLinesConfig) for LCD_CtrlLinesConfig
    stm3210c_eval_lcd.o(i.LCD_Setup) refers to stm3210c_eval_lcd.o(i.LCD_SPIConfig) for LCD_SPIConfig
    stm3210c_eval_lcd.o(i.LCD_Setup) refers to stm3210c_eval_lcd.o(i.delay) for delay
    stm3210c_eval_lcd.o(i.LCD_Setup) refers to stm3210c_eval_lcd.o(i.LCD_WriteReg) for LCD_WriteReg
    stm3210c_eval_lcd.o(i.LCD_WindowModeDisable) refers to stm3210c_eval_lcd.o(i.LCD_SetDisplayWindow) for LCD_SetDisplayWindow
    stm3210c_eval_lcd.o(i.LCD_WindowModeDisable) refers to stm3210c_eval_lcd.o(i.LCD_WriteReg) for LCD_WriteReg
    stm3210c_eval_lcd.o(i.LCD_WriteRAM) refers to stm32f10x_spi.o(i.SPI_I2S_SendData) for SPI_I2S_SendData
    stm3210c_eval_lcd.o(i.LCD_WriteRAM) refers to stm32f10x_spi.o(i.SPI_I2S_GetFlagStatus) for SPI_I2S_GetFlagStatus
    stm3210c_eval_lcd.o(i.LCD_WriteRAMWord) refers to stm3210c_eval_lcd.o(i.LCD_WriteRAM_Prepare) for LCD_WriteRAM_Prepare
    stm3210c_eval_lcd.o(i.LCD_WriteRAMWord) refers to stm3210c_eval_lcd.o(i.LCD_WriteRAM) for LCD_WriteRAM
    stm3210c_eval_lcd.o(i.LCD_WriteRAMWord) refers to stm3210c_eval_lcd.o(i.LCD_CtrlLinesWrite) for LCD_CtrlLinesWrite
    stm3210c_eval_lcd.o(i.LCD_WriteRAM_Prepare) refers to stm3210c_eval_lcd.o(i.LCD_WriteRegIndex) for LCD_WriteRegIndex
    stm3210c_eval_lcd.o(i.LCD_WriteRAM_Prepare) refers to stm3210c_eval_lcd.o(i.LCD_nCS_StartByte) for LCD_nCS_StartByte
    stm3210c_eval_lcd.o(i.LCD_WriteReg) refers to stm3210c_eval_lcd.o(i.LCD_WriteRegIndex) for LCD_WriteRegIndex
    stm3210c_eval_lcd.o(i.LCD_WriteReg) refers to stm3210c_eval_lcd.o(i.LCD_nCS_StartByte) for LCD_nCS_StartByte
    stm3210c_eval_lcd.o(i.LCD_WriteReg) refers to stm32f10x_spi.o(i.SPI_I2S_SendData) for SPI_I2S_SendData
    stm3210c_eval_lcd.o(i.LCD_WriteReg) refers to stm32f10x_spi.o(i.SPI_I2S_GetFlagStatus) for SPI_I2S_GetFlagStatus
    stm3210c_eval_lcd.o(i.LCD_WriteReg) refers to stm3210c_eval_lcd.o(i.LCD_CtrlLinesWrite) for LCD_CtrlLinesWrite
    stm3210c_eval_lcd.o(i.LCD_WriteRegIndex) refers to stm3210c_eval_lcd.o(i.LCD_nCS_StartByte) for LCD_nCS_StartByte
    stm3210c_eval_lcd.o(i.LCD_WriteRegIndex) refers to stm32f10x_spi.o(i.SPI_I2S_SendData) for SPI_I2S_SendData
    stm3210c_eval_lcd.o(i.LCD_WriteRegIndex) refers to stm32f10x_spi.o(i.SPI_I2S_GetFlagStatus) for SPI_I2S_GetFlagStatus
    stm3210c_eval_lcd.o(i.LCD_WriteRegIndex) refers to stm3210c_eval_lcd.o(i.LCD_CtrlLinesWrite) for LCD_CtrlLinesWrite
    stm3210c_eval_lcd.o(i.LCD_nCS_StartByte) refers to stm3210c_eval_lcd.o(i.LCD_CtrlLinesWrite) for LCD_CtrlLinesWrite
    stm3210c_eval_lcd.o(i.LCD_nCS_StartByte) refers to stm32f10x_spi.o(i.SPI_I2S_SendData) for SPI_I2S_SendData
    stm3210c_eval_lcd.o(i.LCD_nCS_StartByte) refers to stm32f10x_spi.o(i.SPI_I2S_GetFlagStatus) for SPI_I2S_GetFlagStatus
    stm3210c_eval_lcd.o(i.STM3210C_LCD_Init) refers to stm3210c_eval_lcd.o(i.LCD_Setup) for LCD_Setup
    ethernetif.o(i.ETH_GetCurrentTxBuffer) refers to stm32_eth.o(.data) for DMATxDescToSet
    ethernetif.o(i.ETH_RxPkt_ChainMode) refers to stm32_eth.o(.data) for DMARxDescToGet
    ethernetif.o(i.ETH_TxPkt_ChainMode) refers to stm32_eth.o(.data) for DMATxDescToSet
    ethernetif.o(i.Set_MAC_Address) refers to stm32_eth.o(i.ETH_MACAddressConfig) for ETH_MACAddressConfig
    ethernetif.o(i.Set_MAC_Address) refers to ethernetif.o(.data) for .data
    ethernetif.o(i.ethernetif_init) refers to mem.o(i.mem_malloc) for mem_malloc
    ethernetif.o(i.ethernetif_init) refers to ethernetif.o(i.low_level_init) for low_level_init
    ethernetif.o(i.ethernetif_init) refers to etharp.o(i.etharp_output) for etharp_output
    ethernetif.o(i.ethernetif_init) refers to ethernetif.o(i.low_level_output) for low_level_output
    ethernetif.o(i.ethernetif_input) refers to ethernetif.o(i.ETH_RxPkt_ChainMode) for ETH_RxPkt_ChainMode
    ethernetif.o(i.ethernetif_input) refers to pbuf.o(i.pbuf_alloc) for pbuf_alloc
    ethernetif.o(i.ethernetif_input) refers to rt_memcpy_v6.o(.text) for __aeabi_memcpy
    ethernetif.o(i.ethernetif_input) refers to pbuf.o(i.pbuf_free) for pbuf_free
    ethernetif.o(i.low_level_init) refers to stm32_eth.o(i.ETH_DMATxDescChainInit) for ETH_DMATxDescChainInit
    ethernetif.o(i.low_level_init) refers to stm32_eth.o(i.ETH_DMARxDescChainInit) for ETH_DMARxDescChainInit
    ethernetif.o(i.low_level_init) refers to stm32_eth.o(i.ETH_DMARxDescReceiveITConfig) for ETH_DMARxDescReceiveITConfig
    ethernetif.o(i.low_level_init) refers to stm32_eth.o(i.ETH_DMATxDescChecksumInsertionConfig) for ETH_DMATxDescChecksumInsertionConfig
    ethernetif.o(i.low_level_init) refers to stm32_eth.o(i.ETH_Start) for ETH_Start
    ethernetif.o(i.low_level_init) refers to ethernetif.o(.data) for .data
    ethernetif.o(i.low_level_init) refers to ethernetif.o(.bss) for .bss
    ethernetif.o(i.low_level_output) refers to ethernetif.o(i.ETH_GetCurrentTxBuffer) for ETH_GetCurrentTxBuffer
    ethernetif.o(i.low_level_output) refers to rt_memcpy_v6.o(.text) for __aeabi_memcpy
    ethernetif.o(i.low_level_output) refers to ethernetif.o(i.ETH_TxPkt_ChainMode) for ETH_TxPkt_ChainMode
    ethernetif.o(.data) refers to ethernetif.o(.bss) for DMATxDscrTab
    tcp.o(i.tcp_abandon) refers to tcp.o(i.tcp_pcb_remove) for tcp_pcb_remove
    tcp.o(i.tcp_abandon) refers to tcp.o(i.tcp_segs_free) for tcp_segs_free
    tcp.o(i.tcp_abandon) refers to memp.o(i.memp_free) for memp_free
    tcp.o(i.tcp_abandon) refers to tcp_out.o(i.tcp_rst) for tcp_rst
    tcp.o(i.tcp_abandon) refers to tcp.o(.data) for .data
    tcp.o(i.tcp_alloc) refers to memp.o(i.memp_malloc) for memp_malloc
    tcp.o(i.tcp_alloc) refers to tcp.o(i.tcp_abandon) for tcp_abandon
    tcp.o(i.tcp_alloc) refers to rt_memclr_w.o(.text) for __aeabi_memclr4
    tcp.o(i.tcp_alloc) refers to tcp.o(i.tcp_next_iss) for tcp_next_iss
    tcp.o(i.tcp_alloc) refers to tcp.o(.data) for .data
    tcp.o(i.tcp_alloc) refers to tcp.o(i.tcp_recv_null) for tcp_recv_null
    tcp.o(i.tcp_bind) refers to tcp.o(i.tcp_new_port) for tcp_new_port
    tcp.o(i.tcp_bind) refers to tcp.o(.data) for .data
    tcp.o(i.tcp_close) refers to memp.o(i.memp_free) for memp_free
    tcp.o(i.tcp_close) refers to tcp.o(i.tcp_pcb_remove) for tcp_pcb_remove
    tcp.o(i.tcp_close) refers to tcp_out.o(i.tcp_send_ctrl) for tcp_send_ctrl
    tcp.o(i.tcp_close) refers to tcp_out.o(i.tcp_output) for tcp_output
    tcp.o(i.tcp_close) refers to tcp.o(.data) for .data
    tcp.o(i.tcp_connect) refers to tcp.o(i.tcp_new_port) for tcp_new_port
    tcp.o(i.tcp_connect) refers to tcp.o(i.tcp_next_iss) for tcp_next_iss
    tcp.o(i.tcp_connect) refers to tcp.o(i.tcp_eff_send_mss) for tcp_eff_send_mss
    tcp.o(i.tcp_connect) refers to tcp_out.o(i.tcp_enqueue) for tcp_enqueue
    tcp.o(i.tcp_connect) refers to tcp_out.o(i.tcp_output) for tcp_output
    tcp.o(i.tcp_connect) refers to tcp.o(.data) for .data
    tcp.o(i.tcp_eff_send_mss) refers to ip.o(i.ip_route) for ip_route
    tcp.o(i.tcp_fasttmr) refers to pbuf.o(i.pbuf_free) for pbuf_free
    tcp.o(i.tcp_fasttmr) refers to tcp_out.o(i.tcp_output) for tcp_output
    tcp.o(i.tcp_fasttmr) refers to tcp.o(.data) for .data
    tcp.o(i.tcp_listen_with_backlog) refers to memp.o(i.memp_malloc) for memp_malloc
    tcp.o(i.tcp_listen_with_backlog) refers to memp.o(i.memp_free) for memp_free
    tcp.o(i.tcp_listen_with_backlog) refers to tcp.o(.data) for .data
    tcp.o(i.tcp_listen_with_backlog) refers to tcp.o(i.tcp_accept_null) for tcp_accept_null
    tcp.o(i.tcp_new) refers to tcp.o(i.tcp_alloc) for tcp_alloc
    tcp.o(i.tcp_new_port) refers to tcp.o(.data) for .data
    tcp.o(i.tcp_next_iss) refers to tcp.o(.data) for .data
    tcp.o(i.tcp_pcb_purge) refers to pbuf.o(i.pbuf_free) for pbuf_free
    tcp.o(i.tcp_pcb_purge) refers to tcp.o(i.tcp_segs_free) for tcp_segs_free
    tcp.o(i.tcp_pcb_remove) refers to tcp.o(i.tcp_pcb_purge) for tcp_pcb_purge
    tcp.o(i.tcp_pcb_remove) refers to tcp_out.o(i.tcp_output) for tcp_output
    tcp.o(i.tcp_pcb_remove) refers to tcp.o(.data) for .data
    tcp.o(i.tcp_recv_null) refers to pbuf.o(i.pbuf_free) for pbuf_free
    tcp.o(i.tcp_recv_null) refers to tcp.o(i.tcp_close) for tcp_close
    tcp.o(i.tcp_recved) refers to tcp.o(i.tcp_update_rcv_ann_wnd) for tcp_update_rcv_ann_wnd
    tcp.o(i.tcp_recved) refers to tcp_out.o(i.tcp_output) for tcp_output
    tcp.o(i.tcp_seg_free) refers to pbuf.o(i.pbuf_free) for pbuf_free
    tcp.o(i.tcp_seg_free) refers to memp.o(i.memp_free) for memp_free
    tcp.o(i.tcp_segs_free) refers to tcp.o(i.tcp_seg_free) for tcp_seg_free
    tcp.o(i.tcp_slowtmr) refers to tcp_out.o(i.tcp_zero_window_probe) for tcp_zero_window_probe
    tcp.o(i.tcp_slowtmr) refers to tcp_out.o(i.tcp_rexmit_rto) for tcp_rexmit_rto
    tcp.o(i.tcp_slowtmr) refers to tcp.o(i.tcp_abandon) for tcp_abandon
    tcp.o(i.tcp_slowtmr) refers to tcp_out.o(i.tcp_keepalive) for tcp_keepalive
    tcp.o(i.tcp_slowtmr) refers to tcp.o(i.tcp_pcb_purge) for tcp_pcb_purge
    tcp.o(i.tcp_slowtmr) refers to memp.o(i.memp_free) for memp_free
    tcp.o(i.tcp_slowtmr) refers to tcp_out.o(i.tcp_output) for tcp_output
    tcp.o(i.tcp_slowtmr) refers to tcp.o(.data) for .data
    tcp.o(i.tcp_slowtmr) refers to tcp.o(.constdata) for .constdata
    tcp.o(i.tcp_tmr) refers to tcp.o(i.tcp_fasttmr) for tcp_fasttmr
    tcp.o(i.tcp_tmr) refers to tcp.o(i.tcp_slowtmr) for tcp_slowtmr
    tcp.o(i.tcp_tmr) refers to tcp.o(.data) for .data
    tcp_in.o(i.tcp_input) refers to inet.o(i.ntohs) for ntohs
    tcp_in.o(i.tcp_input) refers to pbuf.o(i.pbuf_header) for pbuf_header
    tcp_in.o(i.tcp_input) refers to ip_addr.o(i.ip_addr_isbroadcast) for ip_addr_isbroadcast
    tcp_in.o(i.tcp_input) refers to inet.o(i.ntohl) for ntohl
    tcp_in.o(i.tcp_input) refers to tcp_out.o(i.tcp_output) for tcp_output
    tcp_in.o(i.tcp_input) refers to tcp_in.o(i.tcp_listen_input) for tcp_listen_input
    tcp_in.o(i.tcp_input) refers to pbuf.o(i.pbuf_free) for pbuf_free
    tcp_in.o(i.tcp_input) refers to tcp_in.o(i.tcp_process) for tcp_process
    tcp_in.o(i.tcp_input) refers to tcp.o(i.tcp_pcb_remove) for tcp_pcb_remove
    tcp_in.o(i.tcp_input) refers to memp.o(i.memp_free) for memp_free
    tcp_in.o(i.tcp_input) refers to tcp_out.o(i.tcp_rst) for tcp_rst
    tcp_in.o(i.tcp_input) refers to tcp_in.o(.data) for .data
    tcp_in.o(i.tcp_input) refers to tcp.o(.data) for tcp_active_pcbs
    tcp_in.o(i.tcp_input) refers to tcp_in.o(.bss) for .bss
    tcp_in.o(i.tcp_listen_input) refers to tcp_out.o(i.tcp_rst) for tcp_rst
    tcp_in.o(i.tcp_listen_input) refers to tcp.o(i.tcp_alloc) for tcp_alloc
    tcp_in.o(i.tcp_listen_input) refers to tcp_in.o(i.tcp_parseopt) for tcp_parseopt
    tcp_in.o(i.tcp_listen_input) refers to tcp.o(i.tcp_eff_send_mss) for tcp_eff_send_mss
    tcp_in.o(i.tcp_listen_input) refers to tcp_out.o(i.tcp_enqueue) for tcp_enqueue
    tcp_in.o(i.tcp_listen_input) refers to tcp.o(i.tcp_abandon) for tcp_abandon
    tcp_in.o(i.tcp_listen_input) refers to tcp_out.o(i.tcp_output) for tcp_output
    tcp_in.o(i.tcp_listen_input) refers to tcp_in.o(.data) for .data
    tcp_in.o(i.tcp_listen_input) refers to tcp.o(.data) for tcp_active_pcbs
    tcp_in.o(i.tcp_parseopt) refers to inet.o(i.ntohs) for ntohs
    tcp_in.o(i.tcp_parseopt) refers to tcp_in.o(.data) for .data
    tcp_in.o(i.tcp_process) refers to tcp_out.o(i.tcp_output) for tcp_output
    tcp_in.o(i.tcp_process) refers to tcp_in.o(i.tcp_parseopt) for tcp_parseopt
    tcp_in.o(i.tcp_process) refers to inet.o(i.ntohl) for ntohl
    tcp_in.o(i.tcp_process) refers to tcp.o(i.tcp_eff_send_mss) for tcp_eff_send_mss
    tcp_in.o(i.tcp_process) refers to tcp.o(i.tcp_seg_free) for tcp_seg_free
    tcp_in.o(i.tcp_process) refers to tcp.o(i.tcp_abandon) for tcp_abandon
    tcp_in.o(i.tcp_process) refers to tcp_in.o(i.tcp_receive) for tcp_receive
    tcp_in.o(i.tcp_process) refers to tcp_out.o(i.tcp_rst) for tcp_rst
    tcp_in.o(i.tcp_process) refers to tcp_out.o(i.tcp_rexmit) for tcp_rexmit
    tcp_in.o(i.tcp_process) refers to tcp.o(i.tcp_pcb_purge) for tcp_pcb_purge
    tcp_in.o(i.tcp_process) refers to tcp_in.o(.data) for .data
    tcp_in.o(i.tcp_process) refers to tcp.o(.data) for tcp_ticks
    tcp_in.o(i.tcp_receive) refers to tcp_out.o(i.tcp_rexmit) for tcp_rexmit
    tcp_in.o(i.tcp_receive) refers to pbuf.o(i.pbuf_clen) for pbuf_clen
    tcp_in.o(i.tcp_receive) refers to tcp.o(i.tcp_seg_free) for tcp_seg_free
    tcp_in.o(i.tcp_receive) refers to inet.o(i.ntohl) for ntohl
    tcp_in.o(i.tcp_receive) refers to inet.o(i.ntohs) for ntohs
    tcp_in.o(i.tcp_receive) refers to pbuf.o(i.pbuf_header) for pbuf_header
    tcp_in.o(i.tcp_receive) refers to tcp_out.o(i.tcp_output) for tcp_output
    tcp_in.o(i.tcp_receive) refers to inet.o(i.htons) for htons
    tcp_in.o(i.tcp_receive) refers to pbuf.o(i.pbuf_realloc) for pbuf_realloc
    tcp_in.o(i.tcp_receive) refers to tcp.o(i.tcp_update_rcv_ann_wnd) for tcp_update_rcv_ann_wnd
    tcp_in.o(i.tcp_receive) refers to tcp_in.o(.data) for .data
    tcp_in.o(i.tcp_receive) refers to tcp.o(.data) for tcp_ticks
    tcp_in.o(i.tcp_receive) refers to tcp_in.o(.bss) for .bss
    tcp_out.o(i.tcp_enqueue) refers to memp.o(i.memp_malloc) for memp_malloc
    tcp_out.o(i.tcp_enqueue) refers to pbuf.o(i.pbuf_alloc) for pbuf_alloc
    tcp_out.o(i.tcp_enqueue) refers to pbuf.o(i.pbuf_clen) for pbuf_clen
    tcp_out.o(i.tcp_enqueue) refers to rt_memcpy_v6.o(.text) for __aeabi_memcpy
    tcp_out.o(i.tcp_enqueue) refers to pbuf.o(i.pbuf_cat) for pbuf_cat
    tcp_out.o(i.tcp_enqueue) refers to pbuf.o(i.pbuf_header) for pbuf_header
    tcp_out.o(i.tcp_enqueue) refers to pbuf.o(i.pbuf_free) for pbuf_free
    tcp_out.o(i.tcp_enqueue) refers to inet.o(i.htons) for htons
    tcp_out.o(i.tcp_enqueue) refers to inet.o(i.htonl) for htonl
    tcp_out.o(i.tcp_enqueue) refers to inet.o(i.ntohs) for ntohs
    tcp_out.o(i.tcp_enqueue) refers to tcp.o(i.tcp_segs_free) for tcp_segs_free
    tcp_out.o(i.tcp_enqueue) refers to memp.o(i.memp_free) for memp_free
    tcp_out.o(i.tcp_keepalive) refers to pbuf.o(i.pbuf_alloc) for pbuf_alloc
    tcp_out.o(i.tcp_keepalive) refers to inet.o(i.htonl) for htonl
    tcp_out.o(i.tcp_keepalive) refers to tcp_out.o(i.tcp_output_set_header) for tcp_output_set_header
    tcp_out.o(i.tcp_keepalive) refers to ip.o(i.ip_output) for ip_output
    tcp_out.o(i.tcp_keepalive) refers to pbuf.o(i.pbuf_free) for pbuf_free
    tcp_out.o(i.tcp_output) refers to inet.o(i.ntohl) for ntohl
    tcp_out.o(i.tcp_output) refers to pbuf.o(i.pbuf_alloc) for pbuf_alloc
    tcp_out.o(i.tcp_output) refers to inet.o(i.htonl) for htonl
    tcp_out.o(i.tcp_output) refers to tcp_out.o(i.tcp_output_set_header) for tcp_output_set_header
    tcp_out.o(i.tcp_output) refers to ip.o(i.ip_output) for ip_output
    tcp_out.o(i.tcp_output) refers to pbuf.o(i.pbuf_free) for pbuf_free
    tcp_out.o(i.tcp_output) refers to inet.o(i.ntohs) for ntohs
    tcp_out.o(i.tcp_output) refers to inet.o(i.htons) for htons
    tcp_out.o(i.tcp_output) refers to tcp_out.o(i.tcp_output_segment) for tcp_output_segment
    tcp_out.o(i.tcp_output) refers to tcp.o(i.tcp_seg_free) for tcp_seg_free
    tcp_out.o(i.tcp_output) refers to tcp_in.o(.data) for tcp_input_pcb
    tcp_out.o(i.tcp_output_segment) refers to inet.o(i.htonl) for htonl
    tcp_out.o(i.tcp_output_segment) refers to inet.o(i.htons) for htons
    tcp_out.o(i.tcp_output_segment) refers to ip.o(i.ip_route) for ip_route
    tcp_out.o(i.tcp_output_segment) refers to inet.o(i.ntohl) for ntohl
    tcp_out.o(i.tcp_output_segment) refers to ip.o(i.ip_output) for ip_output
    tcp_out.o(i.tcp_output_segment) refers to tcp.o(.data) for tcp_ticks
    tcp_out.o(i.tcp_output_set_header) refers to inet.o(i.htons) for htons
    tcp_out.o(i.tcp_output_set_header) refers to inet.o(i.htonl) for htonl
    tcp_out.o(i.tcp_output_set_header) refers to inet.o(i.ntohs) for ntohs
    tcp_out.o(i.tcp_rexmit) refers to inet.o(i.ntohl) for ntohl
    tcp_out.o(i.tcp_rexmit) refers to tcp_out.o(i.tcp_output) for tcp_output
    tcp_out.o(i.tcp_rexmit_rto) refers to tcp_out.o(i.tcp_output) for tcp_output
    tcp_out.o(i.tcp_rst) refers to pbuf.o(i.pbuf_alloc) for pbuf_alloc
    tcp_out.o(i.tcp_rst) refers to inet.o(i.htons) for htons
    tcp_out.o(i.tcp_rst) refers to inet.o(i.htonl) for htonl
    tcp_out.o(i.tcp_rst) refers to inet.o(i.ntohs) for ntohs
    tcp_out.o(i.tcp_rst) refers to ip.o(i.ip_output) for ip_output
    tcp_out.o(i.tcp_rst) refers to pbuf.o(i.pbuf_free) for pbuf_free
    tcp_out.o(i.tcp_send_ctrl) refers to tcp_out.o(i.tcp_enqueue) for tcp_enqueue
    tcp_out.o(i.tcp_write) refers to tcp_out.o(i.tcp_enqueue) for tcp_enqueue
    tcp_out.o(i.tcp_zero_window_probe) refers to pbuf.o(i.pbuf_alloc) for pbuf_alloc
    tcp_out.o(i.tcp_zero_window_probe) refers to tcp_out.o(i.tcp_output_set_header) for tcp_output_set_header
    tcp_out.o(i.tcp_zero_window_probe) refers to ip.o(i.ip_output) for ip_output
    tcp_out.o(i.tcp_zero_window_probe) refers to pbuf.o(i.pbuf_free) for pbuf_free
    udp.o(i.udp_bind) refers to udp.o(.data) for .data
    udp.o(i.udp_connect) refers to udp.o(i.udp_bind) for udp_bind
    udp.o(i.udp_connect) refers to udp.o(.data) for .data
    udp.o(i.udp_disconnect) refers to ip_addr.o(.constdata) for ip_addr_any
    udp.o(i.udp_input) refers to inet.o(i.ntohs) for ntohs
    udp.o(i.udp_input) refers to pbuf.o(i.pbuf_header) for pbuf_header
    udp.o(i.udp_input) refers to ip_addr.o(i.ip_addr_isbroadcast) for ip_addr_isbroadcast
    udp.o(i.udp_input) refers to inet.o(i.ntohl) for ntohl
    udp.o(i.udp_input) refers to icmp.o(i.icmp_dest_unreach) for icmp_dest_unreach
    udp.o(i.udp_input) refers to pbuf.o(i.pbuf_free) for pbuf_free
    udp.o(i.udp_input) refers to udp.o(.data) for .data
    udp.o(i.udp_new) refers to memp.o(i.memp_malloc) for memp_malloc
    udp.o(i.udp_new) refers to rt_memclr_w.o(.text) for __aeabi_memclr4
    udp.o(i.udp_remove) refers to memp.o(i.memp_free) for memp_free
    udp.o(i.udp_remove) refers to udp.o(.data) for .data
    udp.o(i.udp_send) refers to udp.o(i.udp_sendto) for udp_sendto
    udp.o(i.udp_sendto) refers to ip.o(i.ip_route) for ip_route
    udp.o(i.udp_sendto) refers to udp.o(i.udp_sendto_if) for udp_sendto_if
    udp.o(i.udp_sendto_if) refers to udp.o(i.udp_bind) for udp_bind
    udp.o(i.udp_sendto_if) refers to pbuf.o(i.pbuf_header) for pbuf_header
    udp.o(i.udp_sendto_if) refers to pbuf.o(i.pbuf_alloc) for pbuf_alloc
    udp.o(i.udp_sendto_if) refers to pbuf.o(i.pbuf_chain) for pbuf_chain
    udp.o(i.udp_sendto_if) refers to inet.o(i.htons) for htons
    udp.o(i.udp_sendto_if) refers to pbuf.o(i.pbuf_free) for pbuf_free
    udp.o(i.udp_sendto_if) refers to ip.o(i.ip_output_if) for ip_output_if
    dhcp.o(i.dhcp_arp_reply) refers to dhcp.o(i.dhcp_decline) for dhcp_decline
    dhcp.o(i.dhcp_bind) refers to inet.o(i.ntohl) for ntohl
    dhcp.o(i.dhcp_bind) refers to inet.o(i.htonl) for htonl
    dhcp.o(i.dhcp_bind) refers to netif.o(i.netif_set_ipaddr) for netif_set_ipaddr
    dhcp.o(i.dhcp_bind) refers to netif.o(i.netif_set_netmask) for netif_set_netmask
    dhcp.o(i.dhcp_bind) refers to netif.o(i.netif_set_gw) for netif_set_gw
    dhcp.o(i.dhcp_bind) refers to netif.o(i.netif_set_up) for netif_set_up
    dhcp.o(i.dhcp_bind) refers to dhcp.o(i.dhcp_set_state) for dhcp_set_state
    dhcp.o(i.dhcp_check) refers to dhcp.o(i.dhcp_set_state) for dhcp_set_state
    dhcp.o(i.dhcp_check) refers to etharp.o(i.etharp_query) for etharp_query
    dhcp.o(i.dhcp_coarse_tmr) refers to dhcp.o(i.dhcp_rebind) for dhcp_rebind
    dhcp.o(i.dhcp_coarse_tmr) refers to dhcp.o(i.dhcp_renew) for dhcp_renew
    dhcp.o(i.dhcp_coarse_tmr) refers to netif.o(.data) for netif_list
    dhcp.o(i.dhcp_create_request) refers to pbuf.o(i.pbuf_alloc) for pbuf_alloc
    dhcp.o(i.dhcp_create_request) refers to inet.o(i.htonl) for htonl
    dhcp.o(i.dhcp_create_request) refers to dhcp.o(.data) for .data
    dhcp.o(i.dhcp_decline) refers to dhcp.o(i.dhcp_set_state) for dhcp_set_state
    dhcp.o(i.dhcp_decline) refers to dhcp.o(i.dhcp_create_request) for dhcp_create_request
    dhcp.o(i.dhcp_decline) refers to dhcp.o(i.dhcp_option) for dhcp_option
    dhcp.o(i.dhcp_decline) refers to dhcp.o(i.dhcp_option_byte) for dhcp_option_byte
    dhcp.o(i.dhcp_decline) refers to inet.o(i.ntohl) for ntohl
    dhcp.o(i.dhcp_decline) refers to dhcp.o(i.dhcp_option_long) for dhcp_option_long
    dhcp.o(i.dhcp_decline) refers to dhcp.o(i.dhcp_option_trailer) for dhcp_option_trailer
    dhcp.o(i.dhcp_decline) refers to pbuf.o(i.pbuf_realloc) for pbuf_realloc
    dhcp.o(i.dhcp_decline) refers to udp.o(i.udp_connect) for udp_connect
    dhcp.o(i.dhcp_decline) refers to udp.o(i.udp_sendto_if) for udp_sendto_if
    dhcp.o(i.dhcp_decline) refers to dhcp.o(i.dhcp_delete_request) for dhcp_delete_request
    dhcp.o(i.dhcp_decline) refers to ip_addr.o(.constdata) for ip_addr_any
    dhcp.o(i.dhcp_decline) refers to ip_addr.o(.constdata) for ip_addr_broadcast
    dhcp.o(i.dhcp_delete_request) refers to pbuf.o(i.pbuf_free) for pbuf_free
    dhcp.o(i.dhcp_discover) refers to dhcp.o(i.dhcp_set_state) for dhcp_set_state
    dhcp.o(i.dhcp_discover) refers to dhcp.o(i.dhcp_create_request) for dhcp_create_request
    dhcp.o(i.dhcp_discover) refers to dhcp.o(i.dhcp_option) for dhcp_option
    dhcp.o(i.dhcp_discover) refers to dhcp.o(i.dhcp_option_byte) for dhcp_option_byte
    dhcp.o(i.dhcp_discover) refers to dhcp.o(i.dhcp_option_short) for dhcp_option_short
    dhcp.o(i.dhcp_discover) refers to dhcp.o(i.dhcp_option_trailer) for dhcp_option_trailer
    dhcp.o(i.dhcp_discover) refers to pbuf.o(i.pbuf_realloc) for pbuf_realloc
    dhcp.o(i.dhcp_discover) refers to udp.o(i.udp_connect) for udp_connect
    dhcp.o(i.dhcp_discover) refers to udp.o(i.udp_sendto_if) for udp_sendto_if
    dhcp.o(i.dhcp_discover) refers to dhcp.o(i.dhcp_delete_request) for dhcp_delete_request
    dhcp.o(i.dhcp_discover) refers to ip_addr.o(.constdata) for ip_addr_any
    dhcp.o(i.dhcp_discover) refers to ip_addr.o(.constdata) for ip_addr_broadcast
    dhcp.o(i.dhcp_fine_tmr) refers to dhcp.o(i.dhcp_timeout) for dhcp_timeout
    dhcp.o(i.dhcp_fine_tmr) refers to netif.o(.data) for netif_list
    dhcp.o(i.dhcp_free_reply) refers to mem.o(i.mem_free) for mem_free
    dhcp.o(i.dhcp_handle_ack) refers to dhcp.o(i.dhcp_get_option_ptr) for dhcp_get_option_ptr
    dhcp.o(i.dhcp_handle_ack) refers to dhcp.o(i.dhcp_get_option_long) for dhcp_get_option_long
    dhcp.o(i.dhcp_handle_ack) refers to inet.o(i.htonl) for htonl
    dhcp.o(i.dhcp_inform) refers to mem.o(i.mem_malloc) for mem_malloc
    dhcp.o(i.dhcp_inform) refers to rt_memclr_w.o(.text) for __aeabi_memclr4
    dhcp.o(i.dhcp_inform) refers to udp.o(i.udp_new) for udp_new
    dhcp.o(i.dhcp_inform) refers to dhcp.o(i.dhcp_create_request) for dhcp_create_request
    dhcp.o(i.dhcp_inform) refers to mem.o(i.mem_free) for mem_free
    dhcp.o(i.dhcp_inform) refers to dhcp.o(i.dhcp_option) for dhcp_option
    dhcp.o(i.dhcp_inform) refers to dhcp.o(i.dhcp_option_byte) for dhcp_option_byte
    dhcp.o(i.dhcp_inform) refers to dhcp.o(i.dhcp_option_short) for dhcp_option_short
    dhcp.o(i.dhcp_inform) refers to dhcp.o(i.dhcp_option_trailer) for dhcp_option_trailer
    dhcp.o(i.dhcp_inform) refers to pbuf.o(i.pbuf_realloc) for pbuf_realloc
    dhcp.o(i.dhcp_inform) refers to udp.o(i.udp_bind) for udp_bind
    dhcp.o(i.dhcp_inform) refers to udp.o(i.udp_connect) for udp_connect
    dhcp.o(i.dhcp_inform) refers to udp.o(i.udp_sendto_if) for udp_sendto_if
    dhcp.o(i.dhcp_inform) refers to dhcp.o(i.dhcp_delete_request) for dhcp_delete_request
    dhcp.o(i.dhcp_inform) refers to udp.o(i.udp_remove) for udp_remove
    dhcp.o(i.dhcp_inform) refers to ip_addr.o(.constdata) for ip_addr_any
    dhcp.o(i.dhcp_inform) refers to ip_addr.o(.constdata) for ip_addr_broadcast
    dhcp.o(i.dhcp_rebind) refers to dhcp.o(i.dhcp_set_state) for dhcp_set_state
    dhcp.o(i.dhcp_rebind) refers to dhcp.o(i.dhcp_create_request) for dhcp_create_request
    dhcp.o(i.dhcp_rebind) refers to dhcp.o(i.dhcp_option) for dhcp_option
    dhcp.o(i.dhcp_rebind) refers to dhcp.o(i.dhcp_option_byte) for dhcp_option_byte
    dhcp.o(i.dhcp_rebind) refers to dhcp.o(i.dhcp_option_short) for dhcp_option_short
    dhcp.o(i.dhcp_rebind) refers to dhcp.o(i.dhcp_option_trailer) for dhcp_option_trailer
    dhcp.o(i.dhcp_rebind) refers to pbuf.o(i.pbuf_realloc) for pbuf_realloc
    dhcp.o(i.dhcp_rebind) refers to udp.o(i.udp_connect) for udp_connect
    dhcp.o(i.dhcp_rebind) refers to udp.o(i.udp_sendto_if) for udp_sendto_if
    dhcp.o(i.dhcp_rebind) refers to dhcp.o(i.dhcp_delete_request) for dhcp_delete_request
    dhcp.o(i.dhcp_rebind) refers to ip_addr.o(.constdata) for ip_addr_any
    dhcp.o(i.dhcp_rebind) refers to ip_addr.o(.constdata) for ip_addr_broadcast
    dhcp.o(i.dhcp_recv) refers to inet.o(i.ntohl) for ntohl
    dhcp.o(i.dhcp_recv) refers to dhcp.o(i.dhcp_unfold_reply) for dhcp_unfold_reply
    dhcp.o(i.dhcp_recv) refers to dhcp.o(i.dhcp_get_option_ptr) for dhcp_get_option_ptr
    dhcp.o(i.dhcp_recv) refers to dhcp.o(i.dhcp_handle_ack) for dhcp_handle_ack
    dhcp.o(i.dhcp_recv) refers to dhcp.o(i.dhcp_check) for dhcp_check
    dhcp.o(i.dhcp_recv) refers to dhcp.o(i.dhcp_bind) for dhcp_bind
    dhcp.o(i.dhcp_recv) refers to netif.o(i.netif_set_down) for netif_set_down
    dhcp.o(i.dhcp_recv) refers to netif.o(i.netif_set_ipaddr) for netif_set_ipaddr
    dhcp.o(i.dhcp_recv) refers to netif.o(i.netif_set_gw) for netif_set_gw
    dhcp.o(i.dhcp_recv) refers to netif.o(i.netif_set_netmask) for netif_set_netmask
    dhcp.o(i.dhcp_recv) refers to dhcp.o(i.dhcp_set_state) for dhcp_set_state
    dhcp.o(i.dhcp_recv) refers to dhcp.o(i.dhcp_discover) for dhcp_discover
    dhcp.o(i.dhcp_recv) refers to dhcp.o(i.dhcp_get_option_long) for dhcp_get_option_long
    dhcp.o(i.dhcp_recv) refers to inet.o(i.htonl) for htonl
    dhcp.o(i.dhcp_recv) refers to dhcp.o(i.dhcp_select) for dhcp_select
    dhcp.o(i.dhcp_recv) refers to dhcp.o(i.dhcp_free_reply) for dhcp_free_reply
    dhcp.o(i.dhcp_recv) refers to pbuf.o(i.pbuf_free) for pbuf_free
    dhcp.o(i.dhcp_recv) refers to ip_addr.o(.constdata) for ip_addr_any
    dhcp.o(i.dhcp_release) refers to dhcp.o(i.dhcp_set_state) for dhcp_set_state
    dhcp.o(i.dhcp_release) refers to dhcp.o(i.dhcp_create_request) for dhcp_create_request
    dhcp.o(i.dhcp_release) refers to dhcp.o(i.dhcp_option) for dhcp_option
    dhcp.o(i.dhcp_release) refers to dhcp.o(i.dhcp_option_byte) for dhcp_option_byte
    dhcp.o(i.dhcp_release) refers to dhcp.o(i.dhcp_option_trailer) for dhcp_option_trailer
    dhcp.o(i.dhcp_release) refers to pbuf.o(i.pbuf_realloc) for pbuf_realloc
    dhcp.o(i.dhcp_release) refers to udp.o(i.udp_connect) for udp_connect
    dhcp.o(i.dhcp_release) refers to udp.o(i.udp_sendto_if) for udp_sendto_if
    dhcp.o(i.dhcp_release) refers to dhcp.o(i.dhcp_delete_request) for dhcp_delete_request
    dhcp.o(i.dhcp_release) refers to netif.o(i.netif_set_down) for netif_set_down
    dhcp.o(i.dhcp_release) refers to netif.o(i.netif_set_ipaddr) for netif_set_ipaddr
    dhcp.o(i.dhcp_release) refers to netif.o(i.netif_set_gw) for netif_set_gw
    dhcp.o(i.dhcp_release) refers to netif.o(i.netif_set_netmask) for netif_set_netmask
    dhcp.o(i.dhcp_release) refers to ip_addr.o(.constdata) for ip_addr_any
    dhcp.o(i.dhcp_renew) refers to dhcp.o(i.dhcp_set_state) for dhcp_set_state
    dhcp.o(i.dhcp_renew) refers to dhcp.o(i.dhcp_create_request) for dhcp_create_request
    dhcp.o(i.dhcp_renew) refers to dhcp.o(i.dhcp_option) for dhcp_option
    dhcp.o(i.dhcp_renew) refers to dhcp.o(i.dhcp_option_byte) for dhcp_option_byte
    dhcp.o(i.dhcp_renew) refers to dhcp.o(i.dhcp_option_short) for dhcp_option_short
    dhcp.o(i.dhcp_renew) refers to dhcp.o(i.dhcp_option_trailer) for dhcp_option_trailer
    dhcp.o(i.dhcp_renew) refers to pbuf.o(i.pbuf_realloc) for pbuf_realloc
    dhcp.o(i.dhcp_renew) refers to udp.o(i.udp_connect) for udp_connect
    dhcp.o(i.dhcp_renew) refers to udp.o(i.udp_sendto_if) for udp_sendto_if
    dhcp.o(i.dhcp_renew) refers to dhcp.o(i.dhcp_delete_request) for dhcp_delete_request
    dhcp.o(i.dhcp_select) refers to dhcp.o(i.dhcp_set_state) for dhcp_set_state
    dhcp.o(i.dhcp_select) refers to dhcp.o(i.dhcp_create_request) for dhcp_create_request
    dhcp.o(i.dhcp_select) refers to dhcp.o(i.dhcp_option) for dhcp_option
    dhcp.o(i.dhcp_select) refers to dhcp.o(i.dhcp_option_byte) for dhcp_option_byte
    dhcp.o(i.dhcp_select) refers to dhcp.o(i.dhcp_option_short) for dhcp_option_short
    dhcp.o(i.dhcp_select) refers to inet.o(i.ntohl) for ntohl
    dhcp.o(i.dhcp_select) refers to dhcp.o(i.dhcp_option_long) for dhcp_option_long
    dhcp.o(i.dhcp_select) refers to dhcp.o(i.dhcp_option_trailer) for dhcp_option_trailer
    dhcp.o(i.dhcp_select) refers to pbuf.o(i.pbuf_realloc) for pbuf_realloc
    dhcp.o(i.dhcp_select) refers to udp.o(i.udp_sendto_if) for udp_sendto_if
    dhcp.o(i.dhcp_select) refers to udp.o(i.udp_connect) for udp_connect
    dhcp.o(i.dhcp_select) refers to dhcp.o(i.dhcp_delete_request) for dhcp_delete_request
    dhcp.o(i.dhcp_select) refers to ip_addr.o(.constdata) for ip_addr_broadcast
    dhcp.o(i.dhcp_select) refers to ip_addr.o(.constdata) for ip_addr_any
    dhcp.o(i.dhcp_start) refers to udp.o(i.udp_remove) for udp_remove
    dhcp.o(i.dhcp_start) refers to pbuf.o(i.pbuf_free) for pbuf_free
    dhcp.o(i.dhcp_start) refers to rt_memclr_w.o(.text) for __aeabi_memclr4
    dhcp.o(i.dhcp_start) refers to udp.o(i.udp_new) for udp_new
    dhcp.o(i.dhcp_start) refers to udp.o(i.udp_bind) for udp_bind
    dhcp.o(i.dhcp_start) refers to udp.o(i.udp_connect) for udp_connect
    dhcp.o(i.dhcp_start) refers to udp.o(i.udp_recv) for udp_recv
    dhcp.o(i.dhcp_start) refers to dhcp.o(i.dhcp_discover) for dhcp_discover
    dhcp.o(i.dhcp_start) refers to dhcp.o(i.dhcp_stop) for dhcp_stop
    dhcp.o(i.dhcp_start) refers to mem.o(i.mem_malloc) for mem_malloc
    dhcp.o(i.dhcp_start) refers to mem.o(i.mem_free) for mem_free
    dhcp.o(i.dhcp_start) refers to ip_addr.o(.constdata) for ip_addr_any
    dhcp.o(i.dhcp_start) refers to dhcp.o(i.dhcp_recv) for dhcp_recv
    dhcp.o(i.dhcp_stop) refers to udp.o(i.udp_remove) for udp_remove
    dhcp.o(i.dhcp_stop) refers to pbuf.o(i.pbuf_free) for pbuf_free
    dhcp.o(i.dhcp_stop) refers to dhcp.o(i.dhcp_free_reply) for dhcp_free_reply
    dhcp.o(i.dhcp_stop) refers to mem.o(i.mem_free) for mem_free
    dhcp.o(i.dhcp_timeout) refers to dhcp.o(i.dhcp_rebind) for dhcp_rebind
    dhcp.o(i.dhcp_timeout) refers to dhcp.o(i.dhcp_discover) for dhcp_discover
    dhcp.o(i.dhcp_timeout) refers to dhcp.o(i.dhcp_select) for dhcp_select
    dhcp.o(i.dhcp_timeout) refers to dhcp.o(i.dhcp_check) for dhcp_check
    dhcp.o(i.dhcp_timeout) refers to dhcp.o(i.dhcp_bind) for dhcp_bind
    dhcp.o(i.dhcp_timeout) refers to dhcp.o(i.dhcp_renew) for dhcp_renew
    dhcp.o(i.dhcp_timeout) refers to dhcp.o(i.dhcp_release) for dhcp_release
    dhcp.o(i.dhcp_unfold_reply) refers to dhcp.o(i.dhcp_free_reply) for dhcp_free_reply
    dhcp.o(i.dhcp_unfold_reply) refers to mem.o(i.mem_malloc) for mem_malloc
    dhcp.o(i.dhcp_unfold_reply) refers to pbuf.o(i.pbuf_copy_partial) for pbuf_copy_partial
    dhcp.o(i.dhcp_unfold_reply) refers to mem.o(i.mem_free) for mem_free
    init.o(i.lwip_init) refers to mem.o(i.mem_init) for mem_init
    init.o(i.lwip_init) refers to memp.o(i.memp_init) for memp_init
    mem.o(i.mem_calloc) refers to mem.o(i.mem_malloc) for mem_malloc
    mem.o(i.mem_calloc) refers to rt_memclr.o(.text) for __aeabi_memclr
    mem.o(i.mem_free) refers to mem.o(i.plug_holes) for plug_holes
    mem.o(i.mem_free) refers to mem.o(.data) for .data
    mem.o(i.mem_init) refers to mem.o(.bss) for .bss
    mem.o(i.mem_init) refers to mem.o(.data) for .data
    mem.o(i.mem_malloc) refers to mem.o(.data) for .data
    mem.o(i.mem_realloc) refers to mem.o(.data) for .data
    mem.o(i.plug_holes) refers to mem.o(.data) for .data
    memp.o(i.memp_free) refers to memp.o(.bss) for .bss
    memp.o(i.memp_init) refers to memp.o(.bss) for .bss
    memp.o(i.memp_init) refers to memp.o(.constdata) for .constdata
    memp.o(i.memp_malloc) refers to memp.o(.bss) for .bss
    netif.o(i.netif_add) refers to netif.o(i.netif_set_addr) for netif_set_addr
    netif.o(i.netif_add) refers to netif.o(.data) for .data
    netif.o(i.netif_find) refers to netif.o(.data) for .data
    netif.o(i.netif_remove) refers to netif.o(.data) for .data
    netif.o(i.netif_set_addr) refers to netif.o(i.netif_set_ipaddr) for netif_set_ipaddr
    netif.o(i.netif_set_addr) refers to netif.o(i.netif_set_netmask) for netif_set_netmask
    netif.o(i.netif_set_addr) refers to netif.o(i.netif_set_gw) for netif_set_gw
    netif.o(i.netif_set_default) refers to netif.o(.data) for .data
    netif.o(i.netif_set_ipaddr) refers to tcp.o(i.tcp_abandon) for tcp_abandon
    netif.o(i.netif_set_ipaddr) refers to tcp.o(.data) for tcp_active_pcbs
    netif.o(i.netif_set_up) refers to etharp.o(i.etharp_request) for etharp_request
    pbuf.o(i.pbuf_alloc) refers to memp.o(i.memp_malloc) for memp_malloc
    pbuf.o(i.pbuf_alloc) refers to pbuf.o(i.pbuf_free) for pbuf_free
    pbuf.o(i.pbuf_alloc) refers to mem.o(i.mem_malloc) for mem_malloc
    pbuf.o(i.pbuf_chain) refers to pbuf.o(i.pbuf_cat) for pbuf_cat
    pbuf.o(i.pbuf_chain) refers to pbuf.o(i.pbuf_ref) for pbuf_ref
    pbuf.o(i.pbuf_coalesce) refers to pbuf.o(i.pbuf_alloc) for pbuf_alloc
    pbuf.o(i.pbuf_coalesce) refers to pbuf.o(i.pbuf_copy) for pbuf_copy
    pbuf.o(i.pbuf_coalesce) refers to pbuf.o(i.pbuf_free) for pbuf_free
    pbuf.o(i.pbuf_copy) refers to rt_memcpy_v6.o(.text) for __aeabi_memcpy
    pbuf.o(i.pbuf_copy_partial) refers to rt_memcpy_v6.o(.text) for __aeabi_memcpy
    pbuf.o(i.pbuf_dechain) refers to pbuf.o(i.pbuf_free) for pbuf_free
    pbuf.o(i.pbuf_free) refers to mem.o(i.mem_free) for mem_free
    pbuf.o(i.pbuf_free) refers to memp.o(i.memp_free) for memp_free
    pbuf.o(i.pbuf_realloc) refers to mem.o(i.mem_realloc) for mem_realloc
    pbuf.o(i.pbuf_realloc) refers to pbuf.o(i.pbuf_free) for pbuf_free
    pbuf.o(i.pbuf_take) refers to rt_memcpy_v6.o(.text) for __aeabi_memcpy
    raw.o(i.raw_input) refers to inet.o(i.ntohs) for ntohs
    raw.o(i.raw_input) refers to raw.o(.data) for .data
    raw.o(i.raw_new) refers to memp.o(i.memp_malloc) for memp_malloc
    raw.o(i.raw_new) refers to rt_memclr_w.o(.text) for __aeabi_memclr4
    raw.o(i.raw_new) refers to raw.o(.data) for .data
    raw.o(i.raw_remove) refers to memp.o(i.memp_free) for memp_free
    raw.o(i.raw_remove) refers to raw.o(.data) for .data
    raw.o(i.raw_send) refers to raw.o(i.raw_sendto) for raw_sendto
    raw.o(i.raw_sendto) refers to pbuf.o(i.pbuf_header) for pbuf_header
    raw.o(i.raw_sendto) refers to pbuf.o(i.pbuf_alloc) for pbuf_alloc
    raw.o(i.raw_sendto) refers to pbuf.o(i.pbuf_chain) for pbuf_chain
    raw.o(i.raw_sendto) refers to ip.o(i.ip_route) for ip_route
    raw.o(i.raw_sendto) refers to ip.o(i.ip_output_if) for ip_output_if
    raw.o(i.raw_sendto) refers to pbuf.o(i.pbuf_free) for pbuf_free
    icmp.o(i.icmp_dest_unreach) refers to icmp.o(i.icmp_send_response) for icmp_send_response
    icmp.o(i.icmp_input) refers to inet.o(i.ntohs) for ntohs
    icmp.o(i.icmp_input) refers to pbuf.o(i.pbuf_header) for pbuf_header
    icmp.o(i.icmp_input) refers to inet.o(i.ntohl) for ntohl
    icmp.o(i.icmp_input) refers to ip_addr.o(i.ip_addr_isbroadcast) for ip_addr_isbroadcast
    icmp.o(i.icmp_input) refers to inet_chksum.o(i.inet_chksum_pbuf) for inet_chksum_pbuf
    icmp.o(i.icmp_input) refers to pbuf.o(i.pbuf_alloc) for pbuf_alloc
    icmp.o(i.icmp_input) refers to pbuf.o(i.pbuf_copy) for pbuf_copy
    icmp.o(i.icmp_input) refers to pbuf.o(i.pbuf_free) for pbuf_free
    icmp.o(i.icmp_input) refers to inet.o(i.htons) for htons
    icmp.o(i.icmp_input) refers to ip.o(i.ip_output_if) for ip_output_if
    icmp.o(i.icmp_send_response) refers to pbuf.o(i.pbuf_alloc) for pbuf_alloc
    icmp.o(i.icmp_send_response) refers to rt_memcpy_v6.o(.text) for __aeabi_memcpy
    icmp.o(i.icmp_send_response) refers to inet_chksum.o(i.inet_chksum) for inet_chksum
    icmp.o(i.icmp_send_response) refers to ip.o(i.ip_output) for ip_output
    icmp.o(i.icmp_send_response) refers to pbuf.o(i.pbuf_free) for pbuf_free
    icmp.o(i.icmp_time_exceeded) refers to icmp.o(i.icmp_send_response) for icmp_send_response
    inet.o(i.inet_addr) refers to inet.o(i.inet_aton) for inet_aton
    inet.o(i.inet_ntoa) refers to inet.o(.bss) for .bss
    inet_chksum.o(i.inet_chksum) refers to inet_chksum.o(i.lwip_standard_chksum) for lwip_standard_chksum
    inet_chksum.o(i.inet_chksum_pbuf) refers to inet_chksum.o(i.lwip_standard_chksum) for lwip_standard_chksum
    inet_chksum.o(i.inet_chksum_pseudo) refers to inet_chksum.o(i.lwip_standard_chksum) for lwip_standard_chksum
    inet_chksum.o(i.inet_chksum_pseudo) refers to inet.o(i.htons) for htons
    inet_chksum.o(i.lwip_standard_chksum) refers to inet.o(i.htons) for htons
    ip.o(i.ip_current_header) refers to ip.o(.data) for .data
    ip.o(i.ip_current_netif) refers to ip.o(.data) for .data
    ip.o(i.ip_input) refers to inet.o(i.ntohs) for ntohs
    ip.o(i.ip_input) refers to pbuf.o(i.pbuf_free) for pbuf_free
    ip.o(i.ip_input) refers to pbuf.o(i.pbuf_realloc) for pbuf_realloc
    ip.o(i.ip_input) refers to netif.o(i.netif_is_up) for netif_is_up
    ip.o(i.ip_input) refers to ip_addr.o(i.ip_addr_isbroadcast) for ip_addr_isbroadcast
    ip.o(i.ip_input) refers to inet.o(i.ntohl) for ntohl
    ip.o(i.ip_input) refers to inet.o(i.htons) for htons
    ip.o(i.ip_input) refers to ip_frag.o(i.ip_reass) for ip_reass
    ip.o(i.ip_input) refers to raw.o(i.raw_input) for raw_input
    ip.o(i.ip_input) refers to udp.o(i.udp_input) for udp_input
    ip.o(i.ip_input) refers to tcp_in.o(i.tcp_input) for tcp_input
    ip.o(i.ip_input) refers to icmp.o(i.icmp_input) for icmp_input
    ip.o(i.ip_input) refers to icmp.o(i.icmp_dest_unreach) for icmp_dest_unreach
    ip.o(i.ip_input) refers to netif.o(.data) for netif_list
    ip.o(i.ip_input) refers to ip.o(.data) for .data
    ip.o(i.ip_output) refers to ip.o(i.ip_route) for ip_route
    ip.o(i.ip_output) refers to ip.o(i.ip_output_if) for ip_output_if
    ip.o(i.ip_output_if) refers to pbuf.o(i.pbuf_header) for pbuf_header
    ip.o(i.ip_output_if) refers to inet.o(i.ntohs) for ntohs
    ip.o(i.ip_output_if) refers to inet.o(i.htons) for htons
    ip.o(i.ip_output_if) refers to ip_frag.o(i.ip_frag) for ip_frag
    ip.o(i.ip_output_if) refers to ip.o(.data) for .data
    ip.o(i.ip_route) refers to netif.o(i.netif_is_up) for netif_is_up
    ip.o(i.ip_route) refers to netif.o(.data) for netif_list
    ip_frag.o(i.ip_frag) refers to pbuf.o(i.pbuf_alloc) for pbuf_alloc
    ip_frag.o(i.ip_frag) refers to rt_memcpy_v6.o(.text) for __aeabi_memcpy
    ip_frag.o(i.ip_frag) refers to inet.o(i.ntohs) for ntohs
    ip_frag.o(i.ip_frag) refers to pbuf.o(i.pbuf_copy_partial) for pbuf_copy_partial
    ip_frag.o(i.ip_frag) refers to inet.o(i.htons) for htons
    ip_frag.o(i.ip_frag) refers to inet_chksum.o(i.inet_chksum) for inet_chksum
    ip_frag.o(i.ip_frag) refers to pbuf.o(i.pbuf_realloc) for pbuf_realloc
    ip_frag.o(i.ip_frag) refers to pbuf.o(i.pbuf_chain) for pbuf_chain
    ip_frag.o(i.ip_frag) refers to pbuf.o(i.pbuf_free) for pbuf_free
    ip_frag.o(i.ip_frag) refers to ip_frag.o(.bss) for .bss
    ip_frag.o(i.ip_reass) refers to inet.o(i.ntohs) for ntohs
    ip_frag.o(i.ip_reass) refers to pbuf.o(i.pbuf_clen) for pbuf_clen
    ip_frag.o(i.ip_reass) refers to ip_frag.o(i.ip_reass_remove_oldest_datagram) for ip_reass_remove_oldest_datagram
    ip_frag.o(i.ip_reass) refers to memp.o(i.memp_malloc) for memp_malloc
    ip_frag.o(i.ip_reass) refers to rt_memclr_w.o(.text) for __aeabi_memclr4
    ip_frag.o(i.ip_reass) refers to rt_memcpy_v6.o(.text) for __aeabi_memcpy
    ip_frag.o(i.ip_reass) refers to ip_frag.o(i.ip_reass_chain_frag_into_datagram_and_validate) for ip_reass_chain_frag_into_datagram_and_validate
    ip_frag.o(i.ip_reass) refers to inet.o(i.htons) for htons
    ip_frag.o(i.ip_reass) refers to inet_chksum.o(i.inet_chksum) for inet_chksum
    ip_frag.o(i.ip_reass) refers to pbuf.o(i.pbuf_header) for pbuf_header
    ip_frag.o(i.ip_reass) refers to pbuf.o(i.pbuf_cat) for pbuf_cat
    ip_frag.o(i.ip_reass) refers to ip_frag.o(i.ip_reass_dequeue_datagram) for ip_reass_dequeue_datagram
    ip_frag.o(i.ip_reass) refers to pbuf.o(i.pbuf_free) for pbuf_free
    ip_frag.o(i.ip_reass) refers to ip_frag.o(.data) for .data
    ip_frag.o(i.ip_reass_chain_frag_into_datagram_and_validate) refers to inet.o(i.ntohs) for ntohs
    ip_frag.o(i.ip_reass_chain_frag_into_datagram_and_validate) refers to pbuf.o(i.pbuf_clen) for pbuf_clen
    ip_frag.o(i.ip_reass_chain_frag_into_datagram_and_validate) refers to pbuf.o(i.pbuf_free) for pbuf_free
    ip_frag.o(i.ip_reass_chain_frag_into_datagram_and_validate) refers to ip_frag.o(.data) for .data
    ip_frag.o(i.ip_reass_dequeue_datagram) refers to memp.o(i.memp_free) for memp_free
    ip_frag.o(i.ip_reass_dequeue_datagram) refers to ip_frag.o(.data) for .data
    ip_frag.o(i.ip_reass_free_complete_datagram) refers to rt_memcpy_v6.o(.text) for __aeabi_memcpy
    ip_frag.o(i.ip_reass_free_complete_datagram) refers to icmp.o(i.icmp_time_exceeded) for icmp_time_exceeded
    ip_frag.o(i.ip_reass_free_complete_datagram) refers to pbuf.o(i.pbuf_clen) for pbuf_clen
    ip_frag.o(i.ip_reass_free_complete_datagram) refers to pbuf.o(i.pbuf_free) for pbuf_free
    ip_frag.o(i.ip_reass_free_complete_datagram) refers to ip_frag.o(i.ip_reass_dequeue_datagram) for ip_reass_dequeue_datagram
    ip_frag.o(i.ip_reass_free_complete_datagram) refers to ip_frag.o(.data) for .data
    ip_frag.o(i.ip_reass_remove_oldest_datagram) refers to ip_frag.o(i.ip_reass_free_complete_datagram) for ip_reass_free_complete_datagram
    ip_frag.o(i.ip_reass_remove_oldest_datagram) refers to ip_frag.o(.data) for .data
    ip_frag.o(i.ip_reass_tmr) refers to ip_frag.o(i.ip_reass_free_complete_datagram) for ip_reass_free_complete_datagram
    ip_frag.o(i.ip_reass_tmr) refers to ip_frag.o(.data) for .data
    etharp.o(i.etharp_arp_input) refers to inet.o(i.htons) for htons
    etharp.o(i.etharp_arp_input) refers to etharp.o(i.update_arp_entry) for update_arp_entry
    etharp.o(i.etharp_arp_input) refers to dhcp.o(i.dhcp_arp_reply) for dhcp_arp_reply
    etharp.o(i.etharp_arp_input) refers to pbuf.o(i.pbuf_free) for pbuf_free
    etharp.o(i.etharp_find_addr) refers to etharp.o(i.find_entry) for find_entry
    etharp.o(i.etharp_find_addr) refers to etharp.o(.bss) for .bss
    etharp.o(i.etharp_ip_input) refers to etharp.o(i.update_arp_entry) for update_arp_entry
    etharp.o(i.etharp_output) refers to pbuf.o(i.pbuf_header) for pbuf_header
    etharp.o(i.etharp_output) refers to ip_addr.o(i.ip_addr_isbroadcast) for ip_addr_isbroadcast
    etharp.o(i.etharp_output) refers to inet.o(i.ntohl) for ntohl
    etharp.o(i.etharp_output) refers to etharp.o(i.etharp_send_ip) for etharp_send_ip
    etharp.o(i.etharp_output) refers to etharp.o(i.etharp_query) for etharp_query
    etharp.o(i.etharp_output) refers to etharp.o(.constdata) for .constdata
    etharp.o(i.etharp_query) refers to ip_addr.o(i.ip_addr_isbroadcast) for ip_addr_isbroadcast
    etharp.o(i.etharp_query) refers to inet.o(i.ntohl) for ntohl
    etharp.o(i.etharp_query) refers to etharp.o(i.find_entry) for find_entry
    etharp.o(i.etharp_query) refers to etharp.o(i.etharp_request) for etharp_request
    etharp.o(i.etharp_query) refers to etharp.o(i.etharp_send_ip) for etharp_send_ip
    etharp.o(i.etharp_query) refers to pbuf.o(i.pbuf_alloc) for pbuf_alloc
    etharp.o(i.etharp_query) refers to pbuf.o(i.pbuf_copy) for pbuf_copy
    etharp.o(i.etharp_query) refers to pbuf.o(i.pbuf_free) for pbuf_free
    etharp.o(i.etharp_query) refers to pbuf.o(i.pbuf_ref) for pbuf_ref
    etharp.o(i.etharp_query) refers to memp.o(i.memp_malloc) for memp_malloc
    etharp.o(i.etharp_query) refers to etharp.o(.bss) for .bss
    etharp.o(i.etharp_raw) refers to pbuf.o(i.pbuf_alloc) for pbuf_alloc
    etharp.o(i.etharp_raw) refers to inet.o(i.htons) for htons
    etharp.o(i.etharp_raw) refers to pbuf.o(i.pbuf_free) for pbuf_free
    etharp.o(i.etharp_request) refers to etharp.o(i.etharp_raw) for etharp_raw
    etharp.o(i.etharp_request) refers to etharp.o(.constdata) for .constdata
    etharp.o(i.etharp_send_ip) refers to inet.o(i.htons) for htons
    etharp.o(i.etharp_tmr) refers to etharp.o(i.free_etharp_q) for free_etharp_q
    etharp.o(i.etharp_tmr) refers to etharp.o(.bss) for .bss
    etharp.o(i.ethernet_input) refers to inet.o(i.htons) for htons
    etharp.o(i.ethernet_input) refers to etharp.o(i.etharp_ip_input) for etharp_ip_input
    etharp.o(i.ethernet_input) refers to pbuf.o(i.pbuf_header) for pbuf_header
    etharp.o(i.ethernet_input) refers to pbuf.o(i.pbuf_free) for pbuf_free
    etharp.o(i.ethernet_input) refers to ip.o(i.ip_input) for ip_input
    etharp.o(i.ethernet_input) refers to etharp.o(i.etharp_arp_input) for etharp_arp_input
    etharp.o(i.find_entry) refers to etharp.o(i.free_etharp_q) for free_etharp_q
    etharp.o(i.find_entry) refers to etharp.o(.bss) for .bss
    etharp.o(i.find_entry) refers to etharp.o(.data) for .data
    etharp.o(i.free_etharp_q) refers to pbuf.o(i.pbuf_free) for pbuf_free
    etharp.o(i.free_etharp_q) refers to memp.o(i.memp_free) for memp_free
    etharp.o(i.update_arp_entry) refers to ip_addr.o(i.ip_addr_isbroadcast) for ip_addr_isbroadcast
    etharp.o(i.update_arp_entry) refers to inet.o(i.ntohl) for ntohl
    etharp.o(i.update_arp_entry) refers to etharp.o(i.find_entry) for find_entry
    etharp.o(i.update_arp_entry) refers to memp.o(i.memp_free) for memp_free
    etharp.o(i.update_arp_entry) refers to etharp.o(i.etharp_send_ip) for etharp_send_ip
    etharp.o(i.update_arp_entry) refers to pbuf.o(i.pbuf_free) for pbuf_free
    etharp.o(i.update_arp_entry) refers to etharp.o(.bss) for .bss
    dir.o(i.dir_addCluster) refers to fs.o(i.fs_initClusterChain) for fs_initClusterChain
    dir.o(i.dir_addCluster) refers to fat.o(i.fat_allocClusterChain) for fat_allocClusterChain
    dir.o(i.dir_addCluster) refers to fs.o(i.fs_getLastCluster) for fs_getLastCluster
    dir.o(i.dir_addCluster) refers to fat.o(i.fat_DiscToLogicCluster) for fat_DiscToLogicCluster
    dir.o(i.dir_addCluster) refers to fs.o(i.fs_clearCluster) for fs_clearCluster
    dir.o(i.dir_addCluster) refers to fat.o(i.fat_LogicToDiscCluster) for fat_LogicToDiscCluster
    dir.o(i.dir_createDefaultEntry) refers to plibc.o(i.memCpy) for memCpy
    dir.o(i.dir_createDirectoryEntry) refers to partition.o(i.part_getSect) for part_getSect
    dir.o(i.dir_createDirectoryEntry) refers to plibc.o(i.memCpy) for memCpy
    dir.o(i.dir_createDirectoryEntry) refers to partition.o(i.part_relSect) for part_relSect
    dir.o(i.dir_findFileinBuf) refers to rt_memcpy_w.o(.text) for __aeabi_memcpy4
    dir.o(i.dir_findFileinBuf) refers to plibc.o(i.strMatch) for strMatch
    dir.o(i.dir_findFreeEntryinBuf) refers to rt_memcpy_w.o(.text) for __aeabi_memcpy4
    dir.o(i.dir_findinBuf) refers to dir.o(i.dir_findFileinBuf) for dir_findFileinBuf
    dir.o(i.dir_findinBuf) refers to dir.o(i.dir_findFreeEntryinBuf) for dir_findFreeEntryinBuf
    dir.o(i.dir_findinCluster) refers to fs.o(i.fs_clusterToSector) for fs_clusterToSector
    dir.o(i.dir_findinCluster) refers to partition.o(i.part_getSect) for part_getSect
    dir.o(i.dir_findinCluster) refers to dir.o(i.dir_findinBuf) for dir_findinBuf
    dir.o(i.dir_findinCluster) refers to partition.o(i.part_relSect) for part_relSect
    dir.o(i.dir_findinDir) refers to dir.o(i.dir_findinRootArea) for dir_findinRootArea
    dir.o(i.dir_findinDir) refers to dir.o(i.dir_findinCluster) for dir_findinCluster
    dir.o(i.dir_findinDir) refers to fat.o(i.fat_LogicToDiscCluster) for fat_LogicToDiscCluster
    dir.o(i.dir_findinRootArea) refers to partition.o(i.part_getSect) for part_getSect
    dir.o(i.dir_findinRootArea) refers to dir.o(i.dir_findinBuf) for dir_findinBuf
    dir.o(i.dir_findinRootArea) refers to partition.o(i.part_relSect) for part_relSect
    dir.o(i.dir_getFatFileName) refers to plibc.o(i.memClr) for memClr
    dir.o(i.dir_getFatFileName) refers to plibc.o(i.memCpy) for memCpy
    dir.o(i.dir_getFatFileName) refers to file.o(i.file_normalToFatName) for file_normalToFatName
    dir.o(i.dir_getFileStructure) refers to partition.o(i.part_getSect) for part_getSect
    dir.o(i.dir_getFileStructure) refers to rt_memcpy_w.o(.text) for __aeabi_memcpy4
    dir.o(i.dir_getFileStructure) refers to partition.o(i.part_relSect) for part_relSect
    dir.o(i.dir_setFileSize) refers to partition.o(i.part_getSect) for part_getSect
    dir.o(i.dir_setFileSize) refers to partition.o(i.part_relSect) for part_relSect
    dir.o(i.dir_setFirstCluster) refers to partition.o(i.part_getSect) for part_getSect
    dir.o(i.dir_setFirstCluster) refers to partition.o(i.part_relSect) for part_relSect
    dir.o(i.dir_updateDirectoryEntry) refers to partition.o(i.part_getSect) for part_getSect
    dir.o(i.dir_updateDirectoryEntry) refers to plibc.o(i.memCpy) for memCpy
    dir.o(i.dir_updateDirectoryEntry) refers to partition.o(i.part_relSect) for part_relSect
    disc.o(i.disc_initDisc) refers to disc.o(i.disc_loadMBR) for disc_loadMBR
    disc.o(i.disc_loadMBR) refers to ioman.o(i.ioman_getSector) for ioman_getSector
    disc.o(i.disc_loadMBR) refers to extract.o(i.ex_getPartitionField) for ex_getPartitionField
    disc.o(i.disc_loadMBR) refers to ioman.o(i.ioman_releaseSector) for ioman_releaseSector
    efs.o(i.efs_init) refers to sd_stm32.o(i.if_initInterface) for if_initInterface
    efs.o(i.efs_init) refers to ioman.o(i.ioman_init) for ioman_init
    efs.o(i.efs_init) refers to disc.o(i.disc_initDisc) for disc_initDisc
    efs.o(i.efs_init) refers to partition.o(i.part_initPartition) for part_initPartition
    efs.o(i.efs_init) refers to fs.o(i.fs_initFs) for fs_initFs
    extract.o(i.ex_getPartitionField) refers to extract.o(i.ex_getb32) for ex_getb32
    fat.o(i.fat_DiscToLogicCluster) refers to fat.o(i.fat_LogicToDiscCluster) for fat_LogicToDiscCluster
    fat.o(i.fat_LogicToDiscCluster) refers to fat.o(i.fat_getNextClusterChain) for fat_getNextClusterChain
    fat.o(i.fat_allocClusterChain) refers to fs.o(i.fs_getLastCluster) for fs_getLastCluster
    fat.o(i.fat_allocClusterChain) refers to fat.o(i.fat_getSectorAddressFatEntry) for fat_getSectorAddressFatEntry
    fat.o(i.fat_allocClusterChain) refers to partition.o(i.part_getSect) for part_getSect
    fat.o(i.fat_allocClusterChain) refers to fat.o(i.fat_giveEocMarker) for fat_giveEocMarker
    fat.o(i.fat_allocClusterChain) refers to fat.o(i.fat_setNextClusterAddressWBuf) for fat_setNextClusterAddressWBuf
    fat.o(i.fat_allocClusterChain) refers to partition.o(i.part_relSect) for part_relSect
    fat.o(i.fat_allocClusterChain) refers to fat.o(i.fat_getNextClusterAddressWBuf) for fat_getNextClusterAddressWBuf
    fat.o(i.fat_countClustersInChain) refers to fat.o(i.fat_LogicToDiscCluster) for fat_LogicToDiscCluster
    fat.o(i.fat_countFreeClusters) refers to fat.o(i.fat_getNextClusterAddress) for fat_getNextClusterAddress
    fat.o(i.fat_getNextClusterAddress) refers to fat.o(i.fat_getSectorAddressFatEntry) for fat_getSectorAddressFatEntry
    fat.o(i.fat_getNextClusterAddress) refers to partition.o(i.part_getSect) for part_getSect
    fat.o(i.fat_getNextClusterAddress) refers to partition.o(i.part_relSect) for part_relSect
    fat.o(i.fat_getNextClusterAddressWBuf) refers to fat.o(i.fat_getSectorAddressFatEntry) for fat_getSectorAddressFatEntry
    fat.o(i.fat_getNextClusterAddressWBuf) refers to partition.o(i.part_getSect) for part_getSect
    fat.o(i.fat_getNextClusterAddressWBuf) refers to partition.o(i.part_relSect) for part_relSect
    fat.o(i.fat_getNextClusterChain) refers to fat.o(i.fat_getSectorAddressFatEntry) for fat_getSectorAddressFatEntry
    fat.o(i.fat_getNextClusterChain) refers to partition.o(i.part_getSect) for part_getSect
    fat.o(i.fat_getNextClusterChain) refers to fat.o(i.fat_getNextClusterAddressWBuf) for fat_getNextClusterAddressWBuf
    fat.o(i.fat_getNextClusterChain) refers to fat.o(i.fat_isEocMarker) for fat_isEocMarker
    fat.o(i.fat_getNextClusterChain) refers to partition.o(i.part_relSect) for part_relSect
    fat.o(i.fat_setNextClusterAddress) refers to fat.o(i.fat_getSectorAddressFatEntry) for fat_getSectorAddressFatEntry
    fat.o(i.fat_setNextClusterAddress) refers to partition.o(i.part_getSect) for part_getSect
    fat.o(i.fat_setNextClusterAddress) refers to partition.o(i.part_relSect) for part_relSect
    fat.o(i.fat_setNextClusterAddressWBuf) refers to fat.o(i.fat_getSectorAddressFatEntry) for fat_getSectorAddressFatEntry
    fat.o(i.fat_setNextClusterAddressWBuf) refers to partition.o(i.part_getSect) for part_getSect
    fat.o(i.fat_setNextClusterAddressWBuf) refers to partition.o(i.part_relSect) for part_relSect
    fat.o(i.fat_unlinkClusterChain) refers to fat.o(i.fat_setNextClusterAddress) for fat_setNextClusterAddress
    fat.o(i.fat_unlinkClusterChain) refers to fat.o(i.fat_LogicToDiscCluster) for fat_LogicToDiscCluster
    file.o(i.file_fclose) refers to time.o(i.fs_hasTimeSupport) for fs_hasTimeSupport
    file.o(i.file_fclose) refers to file.o(i.file_getAttr) for file_getAttr
    file.o(i.file_fclose) refers to dir.o(i.dir_updateDirectoryEntry) for dir_updateDirectoryEntry
    file.o(i.file_fclose) refers to dir.o(i.dir_setFileSize) for dir_setFileSize
    file.o(i.file_fclose) refers to plibc.o(i.memClr) for memClr
    file.o(i.file_fclose) refers to file.o(i.file_setAttr) for file_setAttr
    file.o(i.file_fopen) refers to dir.o(i.dir_getFatFileName) for dir_getFatFileName
    file.o(i.file_fopen) refers to fs.o(i.fs_findFile) for fs_findFile
    file.o(i.file_fopen) refers to dir.o(i.dir_getFileStructure) for dir_getFileStructure
    file.o(i.file_fopen) refers to file.o(i.file_initFile) for file_initFile
    file.o(i.file_fopen) refers to file.o(i.file_setAttr) for file_setAttr
    file.o(i.file_fopen) refers to fs.o(i.fs_findFreeFile) for fs_findFreeFile
    file.o(i.file_fopen) refers to dir.o(i.dir_createDefaultEntry) for dir_createDefaultEntry
    file.o(i.file_fopen) refers to dir.o(i.dir_createDirectoryEntry) for dir_createDirectoryEntry
    file.o(i.file_fopen) refers to plibc.o(i.memCpy) for memCpy
    file.o(i.file_fopen) refers to fs.o(i.fs_giveFreeClusterHint) for fs_giveFreeClusterHint
    file.o(i.file_fopen) refers to fs.o(i.fs_getNextFreeCluster) for fs_getNextFreeCluster
    file.o(i.file_fopen) refers to dir.o(i.dir_setFirstCluster) for dir_setFirstCluster
    file.o(i.file_fopen) refers to fs.o(i.fs_setFirstClusterInDirEntry) for fs_setFirstClusterInDirEntry
    file.o(i.file_fopen) refers to fs.o(i.fs_initClusterChain) for fs_initClusterChain
    file.o(i.file_fopen) refers to fat.o(i.fat_giveEocMarker) for fat_giveEocMarker
    file.o(i.file_fopen) refers to fat.o(i.fat_setNextClusterAddress) for fat_setNextClusterAddress
    file.o(i.file_fopen) refers to file.o(i.file_setpos) for file_setpos
    file.o(i.file_fread) refers to file.o(i.file_getAttr) for file_getAttr
    file.o(i.file_fread) refers to fat.o(i.fat_LogicToDiscCluster) for fat_LogicToDiscCluster
    file.o(i.file_fread) refers to fs.o(i.fs_clusterToSector) for fs_clusterToSector
    file.o(i.file_fread) refers to partition.o(i.part_getSect) for part_getSect
    file.o(i.file_fread) refers to plibc.o(i.memCpy) for memCpy
    file.o(i.file_fread) refers to partition.o(i.part_relSect) for part_relSect
    file.o(i.file_fread) refers to partition.o(i.part_directSectorRead) for part_directSectorRead
    file.o(i.file_fwrite) refers to file.o(i.file_getAttr) for file_getAttr
    file.o(i.file_fwrite) refers to file.o(i.file_requiredCluster) for file_requiredCluster
    file.o(i.file_fwrite) refers to fat.o(i.fat_allocClusterChain) for fat_allocClusterChain
    file.o(i.file_fwrite) refers to fat.o(i.fat_LogicToDiscCluster) for fat_LogicToDiscCluster
    file.o(i.file_fwrite) refers to dir.o(i.dir_setFileSize) for dir_setFileSize
    file.o(i.file_fwrite) refers to fs.o(i.fs_clusterToSector) for fs_clusterToSector
    file.o(i.file_fwrite) refers to partition.o(i.part_getSect) for part_getSect
    file.o(i.file_fwrite) refers to plibc.o(i.memCpy) for memCpy
    file.o(i.file_fwrite) refers to partition.o(i.part_relSect) for part_relSect
    file.o(i.file_fwrite) refers to partition.o(i.part_directSectorWrite) for part_directSectorWrite
    file.o(i.file_normalToFatName) refers to file.o(i.file_validateChar) for file_validateChar
    file.o(i.file_read) refers to file.o(i.file_fread) for file_fread
    file.o(i.file_requiredCluster) refers to fat.o(i.fat_countClustersInChain) for fat_countClustersInChain
    file.o(i.file_write) refers to file.o(i.file_fwrite) for file_fwrite
    fs.o(i.fs_clearCluster) refers to fs.o(i.fs_clusterToSector) for fs_clusterToSector
    fs.o(i.fs_clearCluster) refers to partition.o(i.part_getSect) for part_getSect
    fs.o(i.fs_clearCluster) refers to plibc.o(i.memClr) for memClr
    fs.o(i.fs_clearCluster) refers to partition.o(i.part_relSect) for part_relSect
    fs.o(i.fs_findFile) refers to fs.o(i.fs_getFirstClusterRootDir) for fs_getFirstClusterRootDir
    fs.o(i.fs_findFile) refers to file.o(i.file_normalToFatName) for file_normalToFatName
    fs.o(i.fs_findFile) refers to dir.o(i.dir_findinDir) for dir_findinDir
    fs.o(i.fs_findFreeFile) refers to fs.o(i.fs_findFile) for fs_findFile
    fs.o(i.fs_findFreeFile) refers to dir.o(i.dir_getFatFileName) for dir_getFatFileName
    fs.o(i.fs_findFreeFile) refers to dir.o(i.dir_findinDir) for dir_findinDir
    fs.o(i.fs_findFreeFile) refers to dir.o(i.dir_addCluster) for dir_addCluster
    fs.o(i.fs_flushFs) refers to partition.o(i.part_flushPart) for part_flushPart
    fs.o(i.fs_getFsInfo) refers to partition.o(i.part_getSect) for part_getSect
    fs.o(i.fs_getFsInfo) refers to extract.o(i.ex_getb32) for ex_getb32
    fs.o(i.fs_getFsInfo) refers to partition.o(i.part_relSect) for part_relSect
    fs.o(i.fs_getFsInfo) refers to fat.o(i.fat_countFreeClusters) for fat_countFreeClusters
    fs.o(i.fs_getLastCluster) refers to fat.o(i.fat_getNextClusterChain) for fat_getNextClusterChain
    fs.o(i.fs_getNextFreeCluster) refers to fat.o(i.fat_getNextClusterAddress) for fat_getNextClusterAddress
    fs.o(i.fs_initCurrentDir) refers to fs.o(i.fs_getFirstClusterRootDir) for fs_getFirstClusterRootDir
    fs.o(i.fs_initFs) refers to fs.o(i.fs_isValidFat) for fs_isValidFat
    fs.o(i.fs_initFs) refers to fs.o(i.fs_loadVolumeId) for fs_loadVolumeId
    fs.o(i.fs_initFs) refers to fs.o(i.fs_verifySanity) for fs_verifySanity
    fs.o(i.fs_initFs) refers to fs.o(i.fs_countDataSectors) for fs_countDataSectors
    fs.o(i.fs_initFs) refers to fs.o(i.fs_determineFatType) for fs_determineFatType
    fs.o(i.fs_initFs) refers to fs.o(i.fs_findFirstSectorRootDir) for fs_findFirstSectorRootDir
    fs.o(i.fs_initFs) refers to fs.o(i.fs_initCurrentDir) for fs_initCurrentDir
    fs.o(i.fs_isValidFat) refers to partition.o(i.part_getSect) for part_getSect
    fs.o(i.fs_isValidFat) refers to extract.o(i.ex_getb16) for ex_getb16
    fs.o(i.fs_isValidFat) refers to partition.o(i.part_relSect) for part_relSect
    fs.o(i.fs_loadVolumeId) refers to partition.o(i.part_getSect) for part_getSect
    fs.o(i.fs_loadVolumeId) refers to extract.o(i.ex_getb16) for ex_getb16
    fs.o(i.fs_loadVolumeId) refers to extract.o(i.ex_getb32) for ex_getb32
    fs.o(i.fs_loadVolumeId) refers to partition.o(i.part_relSect) for part_relSect
    fs.o(i.fs_setFsInfo) refers to partition.o(i.part_getSect) for part_getSect
    fs.o(i.fs_setFsInfo) refers to extract.o(i.ex_getb32) for ex_getb32
    fs.o(i.fs_setFsInfo) refers to partition.o(i.part_relSect) for part_relSect
    fs.o(i.fs_setFsInfo) refers to extract.o(i.ex_setb32) for ex_setb32
    fs.o(i.fs_umount) refers to fs.o(i.fs_flushFs) for fs_flushFs
    ioman.o(i.ioman_directSectorRead) refers to ioman.o(i.ioman_findSectorInCache) for ioman_findSectorInCache
    ioman.o(i.ioman_directSectorRead) refers to ioman.o(i.ioman_findFreeSpot) for ioman_findFreeSpot
    ioman.o(i.ioman_directSectorRead) refers to ioman.o(i.ioman_putSectorInCache) for ioman_putSectorInCache
    ioman.o(i.ioman_directSectorRead) refers to ioman.o(i.ioman_getPtr) for ioman_getPtr
    ioman.o(i.ioman_directSectorRead) refers to plibc.o(i.memCpy) for memCpy
    ioman.o(i.ioman_directSectorRead) refers to ioman.o(i.ioman_readSector) for ioman_readSector
    ioman.o(i.ioman_directSectorWrite) refers to ioman.o(i.ioman_findSectorInCache) for ioman_findSectorInCache
    ioman.o(i.ioman_directSectorWrite) refers to ioman.o(i.ioman_getPtr) for ioman_getPtr
    ioman.o(i.ioman_directSectorWrite) refers to plibc.o(i.memCpy) for memCpy
    ioman.o(i.ioman_directSectorWrite) refers to ioman.o(i.ioman_findFreeSpot) for ioman_findFreeSpot
    ioman.o(i.ioman_directSectorWrite) refers to ioman.o(i.ioman_resetCacheItem) for ioman_resetCacheItem
    ioman.o(i.ioman_directSectorWrite) refers to ioman.o(i.ioman_setAttr) for ioman_setAttr
    ioman.o(i.ioman_directSectorWrite) refers to ioman.o(i.ioman_writeSector) for ioman_writeSector
    ioman.o(i.ioman_findFreeSpot) refers to ioman.o(i.ioman_getAttr) for ioman_getAttr
    ioman.o(i.ioman_findOverallocableSpot) refers to ioman.o(i.ioman_getAttr) for ioman_getAttr
    ioman.o(i.ioman_findOverallocableSpot) refers to ioman.o(i.ioman_getRefCnt) for ioman_getRefCnt
    ioman.o(i.ioman_findSectorInCache) refers to ioman.o(i.ioman_getAttr) for ioman_getAttr
    ioman.o(i.ioman_findUnusedSpot) refers to ioman.o(i.ioman_getUseCnt) for ioman_getUseCnt
    ioman.o(i.ioman_findUnusedSpot) refers to ioman.o(i.ioman_getAttr) for ioman_getAttr
    ioman.o(i.ioman_findUnusedSpot) refers to ioman.o(i.ioman_getRefCnt) for ioman_getRefCnt
    ioman.o(i.ioman_flushAll) refers to ioman.o(i.ioman_getAttr) for ioman_getAttr
    ioman.o(i.ioman_flushAll) refers to ioman.o(i.ioman_flushSector) for ioman_flushSector
    ioman.o(i.ioman_flushAll) refers to ioman.o(i.ioman_setAttr) for ioman_setAttr
    ioman.o(i.ioman_flushRange) refers to ioman.o(i.ioman_getAttr) for ioman_getAttr
    ioman.o(i.ioman_flushRange) refers to ioman.o(i.ioman_flushSector) for ioman_flushSector
    ioman.o(i.ioman_flushRange) refers to ioman.o(i.ioman_setAttr) for ioman_setAttr
    ioman.o(i.ioman_flushSector) refers to ioman.o(i.ioman_getPtr) for ioman_getPtr
    ioman.o(i.ioman_flushSector) refers to ioman.o(i.ioman_getAttr) for ioman_getAttr
    ioman.o(i.ioman_flushSector) refers to ioman.o(i.ioman_writeSector) for ioman_writeSector
    ioman.o(i.ioman_flushSector) refers to ioman.o(i.ioman_setAttr) for ioman_setAttr
    ioman.o(i.ioman_getSector) refers to ioman.o(i.ioman_findSectorInCache) for ioman_findSectorInCache
    ioman.o(i.ioman_getSector) refers to ioman.o(i.ioman_incUseCnt) for ioman_incUseCnt
    ioman.o(i.ioman_getSector) refers to ioman.o(i.ioman_incRefCnt) for ioman_incRefCnt
    ioman.o(i.ioman_getSector) refers to ioman.o(i.ioman_getPtr) for ioman_getPtr
    ioman.o(i.ioman_getSector) refers to ioman.o(i.ioman_findFreeSpot) for ioman_findFreeSpot
    ioman.o(i.ioman_getSector) refers to ioman.o(i.ioman_findUnusedSpot) for ioman_findUnusedSpot
    ioman.o(i.ioman_getSector) refers to ioman.o(i.ioman_getAttr) for ioman_getAttr
    ioman.o(i.ioman_getSector) refers to ioman.o(i.ioman_flushSector) for ioman_flushSector
    ioman.o(i.ioman_getSector) refers to ioman.o(i.ioman_resetCacheItem) for ioman_resetCacheItem
    ioman.o(i.ioman_getSector) refers to ioman.o(i.ioman_putSectorInCache) for ioman_putSectorInCache
    ioman.o(i.ioman_getSector) refers to ioman.o(i.ioman_findOverallocableSpot) for ioman_findOverallocableSpot
    ioman.o(i.ioman_getSector) refers to ioman.o(i.ioman_push) for ioman_push
    ioman.o(i.ioman_getSector) refers to ioman.o(i.ioman_setAttr) for ioman_setAttr
    ioman.o(i.ioman_init) refers to ioman.o(i.ioman_reset) for ioman_reset
    ioman.o(i.ioman_printStatus) refers to ioman.o(i.ioman_getAttr) for ioman_getAttr
    ioman.o(i.ioman_putSectorInCache) refers to ioman.o(i.ioman_getPtr) for ioman_getPtr
    ioman.o(i.ioman_putSectorInCache) refers to ioman.o(i.ioman_readSector) for ioman_readSector
    ioman.o(i.ioman_putSectorInCache) refers to ioman.o(i.ioman_setAttr) for ioman_setAttr
    ioman.o(i.ioman_readSector) refers to sd_stm32.o(i.if_readBuf) for if_readBuf
    ioman.o(i.ioman_releaseSector) refers to ioman.o(i.ioman_getBp) for ioman_getBp
    ioman.o(i.ioman_releaseSector) refers to ioman.o(i.ioman_decUseCnt) for ioman_decUseCnt
    ioman.o(i.ioman_releaseSector) refers to ioman.o(i.ioman_getUseCnt) for ioman_getUseCnt
    ioman.o(i.ioman_releaseSector) refers to ioman.o(i.ioman_getAttr) for ioman_getAttr
    ioman.o(i.ioman_releaseSector) refers to ioman.o(i.ioman_flushSector) for ioman_flushSector
    ioman.o(i.ioman_releaseSector) refers to ioman.o(i.ioman_pop) for ioman_pop
    ioman.o(i.ioman_releaseSector) refers to ioman.o(i.ioman_putSectorInCache) for ioman_putSectorInCache
    ioman.o(i.ioman_reset) refers to plibc.o(i.memClr) for memClr
    ioman.o(i.ioman_writeSector) refers to sd_stm32.o(i.if_writeBuf) for if_writeBuf
    ls.o(i.ls_fileEntryToDirListEntry) refers to plibc.o(i.memCpy) for memCpy
    ls.o(i.ls_fileEntryToDirListEntry) refers to extract.o(i.ex_getb32) for ex_getb32
    ls.o(i.ls_getDirEntry) refers to ls.o(i.ls_getRealDirEntry) for ls_getRealDirEntry
    ls.o(i.ls_getDirEntry) refers to ls.o(i.ls_getRootAreaEntry) for ls_getRootAreaEntry
    ls.o(i.ls_getNext) refers to ls.o(i.ls_getDirEntry) for ls_getDirEntry
    ls.o(i.ls_getNext) refers to ls.o(i.ls_isValidFileEntry) for ls_isValidFileEntry
    ls.o(i.ls_getRealDirEntry) refers to fat.o(i.fat_LogicToDiscCluster) for fat_LogicToDiscCluster
    ls.o(i.ls_getRealDirEntry) refers to fs.o(i.fs_clusterToSector) for fs_clusterToSector
    ls.o(i.ls_getRealDirEntry) refers to partition.o(i.part_getSect) for part_getSect
    ls.o(i.ls_getRealDirEntry) refers to ls.o(i.ls_fileEntryToDirListEntry) for ls_fileEntryToDirListEntry
    ls.o(i.ls_getRealDirEntry) refers to partition.o(i.part_relSect) for part_relSect
    ls.o(i.ls_getRootAreaEntry) refers to partition.o(i.part_getSect) for part_getSect
    ls.o(i.ls_getRootAreaEntry) refers to ls.o(i.ls_fileEntryToDirListEntry) for ls_fileEntryToDirListEntry
    ls.o(i.ls_getRootAreaEntry) refers to partition.o(i.part_relSect) for part_relSect
    ls.o(i.ls_openDir) refers to fs.o(i.fs_findFile) for fs_findFile
    ls.o(i.ls_openDir) refers to fs.o(i.fs_initClusterChain) for fs_initClusterChain
    ls.o(i.ls_openDir) refers to plibc.o(i.memClr) for memClr
    mkfs.o(i.mkfs_makevfat) refers to plibc.o(i.memClr) for memClr
    mkfs.o(i.mkfs_makevfat) refers to plibc.o(i.memCpy) for memCpy
    mkfs.o(i.mkfs_makevfat) refers to partition.o(i.part_writeBuf) for part_writeBuf
    partition.o(i.part_directSectorRead) refers to partition.o(i.part_getRealLBA) for part_getRealLBA
    partition.o(i.part_directSectorRead) refers to ioman.o(i.ioman_directSectorRead) for ioman_directSectorRead
    partition.o(i.part_directSectorWrite) refers to partition.o(i.part_getRealLBA) for part_getRealLBA
    partition.o(i.part_directSectorWrite) refers to ioman.o(i.ioman_directSectorWrite) for ioman_directSectorWrite
    partition.o(i.part_flushPart) refers to partition.o(i.part_getRealLBA) for part_getRealLBA
    partition.o(i.part_flushPart) refers to ioman.o(i.ioman_flushRange) for ioman_flushRange
    partition.o(i.part_getSect) refers to partition.o(i.part_getRealLBA) for part_getRealLBA
    partition.o(i.part_getSect) refers to ioman.o(i.ioman_getSector) for ioman_getSector
    partition.o(i.part_initPartition) refers to partition.o(i.part_isFatPart) for part_isFatPart
    partition.o(i.part_readBuf) refers to partition.o(i.part_getRealLBA) for part_getRealLBA
    partition.o(i.part_readBuf) refers to sd_stm32.o(i.if_readBuf) for if_readBuf
    partition.o(i.part_relSect) refers to ioman.o(i.ioman_releaseSector) for ioman_releaseSector
    partition.o(i.part_writeBuf) refers to partition.o(i.part_getRealLBA) for part_getRealLBA
    partition.o(i.part_writeBuf) refers to sd_stm32.o(i.if_writeBuf) for if_writeBuf
    ui.o(i.listFiles) refers to fs.o(i.fs_findFile) for fs_findFile
    ui.o(i.listFiles) refers to partition.o(i.part_readBuf) for part_readBuf
    ui.o(i.listFiles) refers to rt_memcpy_w.o(.text) for __aeabi_memcpy4
    ui.o(i.listFiles) refers to file.o(i.file_fread) for file_fread
    ui.o(i.mkdir) refers to fs.o(i.fs_findFile) for fs_findFile
    ui.o(i.mkdir) refers to fs.o(i.fs_findFreeFile) for fs_findFreeFile
    ui.o(i.mkdir) refers to fs.o(i.fs_giveFreeClusterHint) for fs_giveFreeClusterHint
    ui.o(i.mkdir) refers to fs.o(i.fs_getNextFreeCluster) for fs_getNextFreeCluster
    ui.o(i.mkdir) refers to fs.o(i.fs_clearCluster) for fs_clearCluster
    ui.o(i.mkdir) refers to partition.o(i.part_getSect) for part_getSect
    ui.o(i.mkdir) refers to dir.o(i.dir_getFatFileName) for dir_getFatFileName
    ui.o(i.mkdir) refers to plibc.o(i.memClr) for memClr
    ui.o(i.mkdir) refers to plibc.o(i.memCpy) for memCpy
    ui.o(i.mkdir) refers to partition.o(i.part_relSect) for part_relSect
    ui.o(i.mkdir) refers to fs.o(i.fs_clusterToSector) for fs_clusterToSector
    ui.o(i.mkdir) refers to fat.o(i.fat_giveEocMarker) for fat_giveEocMarker
    ui.o(i.mkdir) refers to fat.o(i.fat_setNextClusterAddress) for fat_setNextClusterAddress
    ui.o(i.rmfile) refers to fs.o(i.fs_findFile) for fs_findFile
    ui.o(i.rmfile) refers to partition.o(i.part_getSect) for part_getSect
    ui.o(i.rmfile) refers to extract.o(i.ex_getb16) for ex_getb16
    ui.o(i.rmfile) refers to partition.o(i.part_relSect) for part_relSect
    ui.o(i.rmfile) refers to fat.o(i.fat_unlinkClusterChain) for fat_unlinkClusterChain
    sd.o(i.sd_Command) refers to sd_stm32.o(i.if_spiSend) for if_spiSend
    sd.o(i.sd_Init) refers to sd.o(i.sd_Command) for sd_Command
    sd.o(i.sd_Init) refers to sd.o(i.sd_Resp8b) for sd_Resp8b
    sd.o(i.sd_Resp16b) refers to sd.o(i.sd_Resp8b) for sd_Resp8b
    sd.o(i.sd_Resp16b) refers to sd_stm32.o(i.if_spiSend) for if_spiSend
    sd.o(i.sd_Resp8b) refers to sd_stm32.o(i.if_spiSend) for if_spiSend
    sd.o(i.sd_State) refers to sd.o(i.sd_Command) for sd_Command
    sd.o(i.sd_State) refers to sd.o(i.sd_Resp16b) for sd_Resp16b
    sd.o(i.sd_getDriveSize) refers to sd.o(i.sd_Command) for sd_Command
    sd.o(i.sd_getDriveSize) refers to sd.o(i.sd_Resp8b) for sd_Resp8b
    sd.o(i.sd_getDriveSize) refers to sd_stm32.o(i.if_spiSend) for if_spiSend
    sd.o(i.sd_readSector) refers to sd.o(i.sd_Command) for sd_Command
    sd.o(i.sd_readSector) refers to sd.o(i.sd_Resp8b) for sd_Resp8b
    sd.o(i.sd_readSector) refers to sd_stm32.o(i.if_spiSend) for if_spiSend
    sd.o(i.sd_writeSector) refers to sd.o(i.sd_Command) for sd_Command
    sd.o(i.sd_writeSector) refers to sd.o(i.sd_Resp8b) for sd_Resp8b
    sd.o(i.sd_writeSector) refers to sd_stm32.o(i.if_spiSend) for if_spiSend
    sd_stm32.o(i.SPI_Config) refers to stm32f10x_rcc.o(i.RCC_APB2PeriphClockCmd) for RCC_APB2PeriphClockCmd
    sd_stm32.o(i.SPI_Config) refers to stm32f10x_gpio.o(i.GPIO_PinRemapConfig) for GPIO_PinRemapConfig
    sd_stm32.o(i.SPI_Config) refers to stm32f10x_rcc.o(i.RCC_APB1PeriphClockCmd) for RCC_APB1PeriphClockCmd
    sd_stm32.o(i.SPI_Config) refers to stm32f10x_gpio.o(i.GPIO_Init) for GPIO_Init
    sd_stm32.o(i.SPI_Config) refers to stm32f10x_spi.o(i.SPI_Init) for SPI_Init
    sd_stm32.o(i.SPI_Config) refers to stm32f10x_spi.o(i.SPI_Cmd) for SPI_Cmd
    sd_stm32.o(i.if_initInterface) refers to sd_stm32.o(i.if_spiInit) for if_spiInit
    sd_stm32.o(i.if_initInterface) refers to sd.o(i.sd_Init) for sd_Init
    sd_stm32.o(i.if_initInterface) refers to sd.o(i.sd_State) for sd_State
    sd_stm32.o(i.if_initInterface) refers to sd.o(i.sd_getDriveSize) for sd_getDriveSize
    sd_stm32.o(i.if_readBuf) refers to sd.o(i.sd_readSector) for sd_readSector
    sd_stm32.o(i.if_spiInit) refers to sd_stm32.o(i.SPI_Config) for SPI_Config
    sd_stm32.o(i.if_spiInit) refers to stm32f10x_gpio.o(i.GPIO_SetBits) for GPIO_SetBits
    sd_stm32.o(i.if_spiInit) refers to stm32f10x_spi.o(i.SPI_I2S_SendData) for SPI_I2S_SendData
    sd_stm32.o(i.if_spiInit) refers to stm32f10x_spi.o(i.SPI_I2S_GetFlagStatus) for SPI_I2S_GetFlagStatus
    sd_stm32.o(i.if_spiInit) refers to stm32f10x_spi.o(i.SPI_I2S_ReceiveData) for SPI_I2S_ReceiveData
    sd_stm32.o(i.if_spiSend) refers to stm32f10x_gpio.o(i.GPIO_ResetBits) for GPIO_ResetBits
    sd_stm32.o(i.if_spiSend) refers to stm32f10x_spi.o(i.SPI_I2S_SendData) for SPI_I2S_SendData
    sd_stm32.o(i.if_spiSend) refers to stm32f10x_spi.o(i.SPI_I2S_GetFlagStatus) for SPI_I2S_GetFlagStatus
    sd_stm32.o(i.if_spiSend) refers to stm32f10x_spi.o(i.SPI_I2S_ReceiveData) for SPI_I2S_ReceiveData
    sd_stm32.o(i.if_spiSend) refers to stm32f10x_gpio.o(i.GPIO_SetBits) for GPIO_SetBits
    sd_stm32.o(i.if_writeBuf) refers to sd.o(i.sd_writeSector) for sd_writeSector
    system_stm32f10x.o(i.SystemInit) refers to system_stm32f10x.o(i.SetSysClockTo72) for SetSysClockTo72
    startup_stm32f10x_cl.o(STACK) refers (Special) to heapauxi.o(.text) for __use_two_region_memory
    startup_stm32f10x_cl.o(HEAP) refers (Special) to heapauxi.o(.text) for __use_two_region_memory
    startup_stm32f10x_cl.o(RESET) refers (Special) to heapauxi.o(.text) for __use_two_region_memory
    startup_stm32f10x_cl.o(RESET) refers to startup_stm32f10x_cl.o(STACK) for __initial_sp
    startup_stm32f10x_cl.o(RESET) refers to startup_stm32f10x_cl.o(.text) for Reset_Handler
    startup_stm32f10x_cl.o(RESET) refers to stm32f10x_it.o(i.NMI_Handler) for NMI_Handler
    startup_stm32f10x_cl.o(RESET) refers to stm32f10x_it.o(i.HardFault_Handler) for HardFault_Handler
    startup_stm32f10x_cl.o(RESET) refers to stm32f10x_it.o(i.MemManage_Handler) for MemManage_Handler
    startup_stm32f10x_cl.o(RESET) refers to stm32f10x_it.o(i.BusFault_Handler) for BusFault_Handler
    startup_stm32f10x_cl.o(RESET) refers to stm32f10x_it.o(i.UsageFault_Handler) for UsageFault_Handler
    startup_stm32f10x_cl.o(RESET) refers to stm32f10x_it.o(i.SVC_Handler) for SVC_Handler
    startup_stm32f10x_cl.o(RESET) refers to stm32f10x_it.o(i.DebugMon_Handler) for DebugMon_Handler
    startup_stm32f10x_cl.o(RESET) refers to stm32f10x_it.o(i.PendSV_Handler) for PendSV_Handler
    startup_stm32f10x_cl.o(RESET) refers to stm32f10x_it.o(i.SysTick_Handler) for SysTick_Handler
    startup_stm32f10x_cl.o(RESET) refers to stm32f10x_it.o(i.EXTI15_10_IRQHandler) for EXTI15_10_IRQHandler
    startup_stm32f10x_cl.o(RESET) refers to stm32f10x_it.o(i.ETH_IRQHandler) for ETH_IRQHandler
    startup_stm32f10x_cl.o(.text) refers (Special) to heapauxi.o(.text) for __use_two_region_memory
    startup_stm32f10x_cl.o(.text) refers to __main.o(!!!main) for __main
    startup_stm32f10x_cl.o(.text) refers to startup_stm32f10x_cl.o(HEAP) for Heap_Mem
    startup_stm32f10x_cl.o(.text) refers to startup_stm32f10x_cl.o(STACK) for Stack_Mem
    __2sprintf.o(.text) refers to _printf_char_common.o(.text) for _printf_char_common
    __2sprintf.o(.text) refers to _sputc.o(.text) for _sputc
    noretval__2sprintf.o(.text) refers to _printf_char_common.o(.text) for _printf_char_common
    noretval__2sprintf.o(.text) refers to _sputc.o(.text) for _sputc
    __printf.o(.text) refers to _printf_percent.o(.ARM.Collect$$_printf_percent$$00000000) for _printf_percent
    _printf_dec.o(.text) refers to _printf_intcommon.o(.text) for _printf_int_common
    __printf_flags.o(.text) refers to _printf_percent.o(.ARM.Collect$$_printf_percent$$00000000) for _printf_percent
    __printf_flags.o(.text) refers to __printf_flags.o(.constdata) for .constdata
    __printf_ss.o(.text) refers to _printf_percent.o(.ARM.Collect$$_printf_percent$$00000000) for _printf_percent
    __printf_flags_ss.o(.text) refers to _printf_percent.o(.ARM.Collect$$_printf_percent$$00000000) for _printf_percent
    __printf_flags_ss.o(.text) refers to __printf_flags_ss.o(.constdata) for .constdata
    __printf_wp.o(.text) refers to __printf_wp.o(i._is_digit) for _is_digit
    __printf_wp.o(.text) refers to _printf_percent.o(.ARM.Collect$$_printf_percent$$00000000) for _printf_percent
    __printf_flags_wp.o(.text) refers to __printf_wp.o(i._is_digit) for _is_digit
    __printf_flags_wp.o(.text) refers to _printf_percent.o(.ARM.Collect$$_printf_percent$$00000000) for _printf_percent
    __printf_flags_wp.o(.text) refers to __printf_flags_wp.o(.constdata) for .constdata
    __printf_ss_wp.o(.text) refers to __printf_wp.o(i._is_digit) for _is_digit
    __printf_ss_wp.o(.text) refers to _printf_percent.o(.ARM.Collect$$_printf_percent$$00000000) for _printf_percent
    __printf_flags_ss_wp.o(.text) refers to __printf_wp.o(i._is_digit) for _is_digit
    __printf_flags_ss_wp.o(.text) refers to _printf_percent.o(.ARM.Collect$$_printf_percent$$00000000) for _printf_percent
    __printf_flags_ss_wp.o(.text) refers to __printf_flags_ss_wp.o(.constdata) for .constdata
    _printf_d.o(.ARM.Collect$$_printf_percent$$00000009) refers (Weak) to _printf_dec.o(.text) for _printf_int_dec
    _printf_percent.o(.ARM.Collect$$_printf_percent$$00000000) refers (Special) to _printf_percent_end.o(.ARM.Collect$$_printf_percent$$00000017) for _printf_percent_end
    rt_memcpy_v6.o(.text) refers to rt_memcpy_w.o(.text) for __aeabi_memcpy4
    rt_memclr.o(.text) refers to rt_memclr_w.o(.text) for _memset_w
    __main.o(!!!main) refers to __rtentry.o(.ARM.Collect$$rtentry$$00000000) for __rt_entry
    __rtentry.o(.ARM.Collect$$rtentry$$00000000) refers (Special) to __rtentry2.o(.ARM.Collect$$rtentry$$0000000A) for __rt_entry_li
    __rtentry.o(.ARM.Collect$$rtentry$$00000000) refers (Special) to __rtentry2.o(.ARM.Collect$$rtentry$$0000000D) for __rt_entry_main
    __rtentry.o(.ARM.Collect$$rtentry$$00000000) refers (Special) to __rtentry2.o(.ARM.Collect$$rtentry$$0000000C) for __rt_entry_postli_1
    __rtentry.o(.ARM.Collect$$rtentry$$00000000) refers (Special) to __rtentry2.o(.ARM.Collect$$rtentry$$00000009) for __rt_entry_postsh_1
    __rtentry.o(.ARM.Collect$$rtentry$$00000000) refers (Special) to __rtentry2.o(.ARM.Collect$$rtentry$$00000002) for __rt_entry_presh_1
    __rtentry.o(.ARM.Collect$$rtentry$$00000000) refers (Special) to __rtentry4.o(.ARM.Collect$$rtentry$$00000004) for __rt_entry_sh
    _printf_char_common.o(.text) refers to __printf.o(.text) for __printf
    __rtentry2.o(.ARM.Collect$$rtentry$$00000008) refers to boardinit2.o(.text) for _platform_post_stackheap_init
    __rtentry2.o(.ARM.Collect$$rtentry$$0000000A) refers to libinit.o(.ARM.Collect$$libinit$$00000000) for __rt_lib_init
    __rtentry2.o(.ARM.Collect$$rtentry$$0000000B) refers to boardinit3.o(.text) for _platform_post_lib_init
    __rtentry2.o(.ARM.Collect$$rtentry$$0000000D) refers to main.o(i.main) for main
    __rtentry2.o(.ARM.Collect$$rtentry$$0000000D) refers to exit.o(.text) for exit
    __rtentry2.o(.ARM.exidx) refers to __rtentry2.o(.ARM.Collect$$rtentry$$00000001) for .ARM.Collect$$rtentry$$00000001
    __rtentry2.o(.ARM.exidx) refers to __rtentry2.o(.ARM.Collect$$rtentry$$00000008) for .ARM.Collect$$rtentry$$00000008
    __rtentry2.o(.ARM.exidx) refers to __rtentry2.o(.ARM.Collect$$rtentry$$0000000A) for .ARM.Collect$$rtentry$$0000000A
    __rtentry2.o(.ARM.exidx) refers to __rtentry2.o(.ARM.Collect$$rtentry$$0000000B) for .ARM.Collect$$rtentry$$0000000B
    __rtentry2.o(.ARM.exidx) refers to __rtentry2.o(.ARM.Collect$$rtentry$$0000000D) for .ARM.Collect$$rtentry$$0000000D
    __rtentry4.o(.ARM.Collect$$rtentry$$00000004) refers to sys_stackheap_outer.o(.text) for __user_setup_stackheap
    __rtentry4.o(.ARM.exidx) refers to __rtentry4.o(.ARM.Collect$$rtentry$$00000004) for .ARM.Collect$$rtentry$$00000004
    sys_stackheap_outer.o(.text) refers to libspace.o(.text) for __user_perproc_libspace
    sys_stackheap_outer.o(.text) refers to startup_stm32f10x_cl.o(.text) for __user_initial_stackheap
    exit.o(.text) refers to rtexit.o(.ARM.Collect$$rtexit$$00000000) for __rt_exit
    libinit.o(.ARM.Collect$$libinit$$00000000) refers (Special) to libinit2.o(.ARM.Collect$$libinit$$0000002E) for __rt_lib_init_alloca_1
    libinit.o(.ARM.Collect$$libinit$$00000000) refers (Special) to libinit2.o(.ARM.Collect$$libinit$$0000002C) for __rt_lib_init_argv_1
    libinit.o(.ARM.Collect$$libinit$$00000000) refers (Special) to libinit2.o(.ARM.Collect$$libinit$$0000001B) for __rt_lib_init_atexit_1
    libinit.o(.ARM.Collect$$libinit$$00000000) refers (Special) to libinit2.o(.ARM.Collect$$libinit$$00000021) for __rt_lib_init_clock_1
    libinit.o(.ARM.Collect$$libinit$$00000000) refers (Special) to libinit2.o(.ARM.Collect$$libinit$$00000032) for __rt_lib_init_cpp_1
    libinit.o(.ARM.Collect$$libinit$$00000000) refers (Special) to libinit2.o(.ARM.Collect$$libinit$$00000030) for __rt_lib_init_exceptions_1
    libinit.o(.ARM.Collect$$libinit$$00000000) refers (Special) to libinit2.o(.ARM.Collect$$libinit$$00000002) for __rt_lib_init_fp_1
    libinit.o(.ARM.Collect$$libinit$$00000000) refers (Special) to libinit2.o(.ARM.Collect$$libinit$$0000001F) for __rt_lib_init_fp_trap_1
    libinit.o(.ARM.Collect$$libinit$$00000000) refers (Special) to libinit2.o(.ARM.Collect$$libinit$$00000023) for __rt_lib_init_getenv_1
    libinit.o(.ARM.Collect$$libinit$$00000000) refers (Special) to libinit2.o(.ARM.Collect$$libinit$$0000000A) for __rt_lib_init_heap_1
    libinit.o(.ARM.Collect$$libinit$$00000000) refers (Special) to libinit2.o(.ARM.Collect$$libinit$$00000011) for __rt_lib_init_lc_collate_1
    libinit.o(.ARM.Collect$$libinit$$00000000) refers (Special) to libinit2.o(.ARM.Collect$$libinit$$00000013) for __rt_lib_init_lc_ctype_1
    libinit.o(.ARM.Collect$$libinit$$00000000) refers (Special) to libinit2.o(.ARM.Collect$$libinit$$00000015) for __rt_lib_init_lc_monetary_1
    libinit.o(.ARM.Collect$$libinit$$00000000) refers (Special) to libinit2.o(.ARM.Collect$$libinit$$00000017) for __rt_lib_init_lc_numeric_1
    libinit.o(.ARM.Collect$$libinit$$00000000) refers (Special) to libinit2.o(.ARM.Collect$$libinit$$00000019) for __rt_lib_init_lc_time_1
    libinit.o(.ARM.Collect$$libinit$$00000000) refers (Special) to libinit2.o(.ARM.Collect$$libinit$$00000004) for __rt_lib_init_preinit_1
    libinit.o(.ARM.Collect$$libinit$$00000000) refers (Special) to libinit2.o(.ARM.Collect$$libinit$$0000000E) for __rt_lib_init_rand_1
    libinit.o(.ARM.Collect$$libinit$$00000000) refers (Special) to libinit2.o(.ARM.Collect$$libinit$$00000033) for __rt_lib_init_return
    libinit.o(.ARM.Collect$$libinit$$00000000) refers (Special) to libinit2.o(.ARM.Collect$$libinit$$0000001D) for __rt_lib_init_signal_1
    libinit.o(.ARM.Collect$$libinit$$00000000) refers (Special) to libinit2.o(.ARM.Collect$$libinit$$00000025) for __rt_lib_init_stdio_1
    libinit.o(.ARM.Collect$$libinit$$00000000) refers (Special) to libinit2.o(.ARM.Collect$$libinit$$0000000C) for __rt_lib_init_user_alloc_1
    libspace.o(.text) refers to libspace.o(.bss) for __libspace_start
    rtexit.o(.ARM.Collect$$rtexit$$00000000) refers (Special) to rtexit2.o(.ARM.Collect$$rtexit$$00000004) for __rt_exit_exit
    rtexit.o(.ARM.Collect$$rtexit$$00000000) refers (Special) to rtexit2.o(.ARM.Collect$$rtexit$$00000003) for __rt_exit_ls
    rtexit.o(.ARM.Collect$$rtexit$$00000000) refers (Special) to rtexit2.o(.ARM.Collect$$rtexit$$00000002) for __rt_exit_prels_1
    rtexit.o(.ARM.exidx) refers (Special) to rtexit2.o(.ARM.Collect$$rtexit$$00000004) for __rt_exit_exit
    rtexit.o(.ARM.exidx) refers (Special) to rtexit2.o(.ARM.Collect$$rtexit$$00000003) for __rt_exit_ls
    rtexit.o(.ARM.exidx) refers (Special) to rtexit2.o(.ARM.Collect$$rtexit$$00000002) for __rt_exit_prels_1
    rtexit.o(.ARM.exidx) refers to rtexit.o(.ARM.Collect$$rtexit$$00000000) for .ARM.Collect$$rtexit$$00000000
    libinit2.o(.ARM.Collect$$libinit$$00000010) refers to libinit2.o(.ARM.Collect$$libinit$$0000000F) for .ARM.Collect$$libinit$$0000000F
    libinit2.o(.ARM.Collect$$libinit$$00000012) refers to libinit2.o(.ARM.Collect$$libinit$$0000000F) for .ARM.Collect$$libinit$$0000000F
    libinit2.o(.ARM.Collect$$libinit$$00000014) refers to libinit2.o(.ARM.Collect$$libinit$$0000000F) for .ARM.Collect$$libinit$$0000000F
    libinit2.o(.ARM.Collect$$libinit$$00000016) refers to libinit2.o(.ARM.Collect$$libinit$$0000000F) for .ARM.Collect$$libinit$$0000000F
    libinit2.o(.ARM.Collect$$libinit$$00000018) refers to libinit2.o(.ARM.Collect$$libinit$$0000000F) for .ARM.Collect$$libinit$$0000000F
    libinit2.o(.ARM.Collect$$libinit$$00000026) refers to argv_veneer.o(.emb_text) for __ARM_argv_veneer
    libinit2.o(.ARM.Collect$$libinit$$00000027) refers to argv_veneer.o(.emb_text) for __ARM_argv_veneer
    rtexit2.o(.ARM.Collect$$rtexit$$00000003) refers to libshutdown.o(.ARM.Collect$$libshutdown$$00000000) for __rt_lib_shutdown
    rtexit2.o(.ARM.Collect$$rtexit$$00000004) refers to sys_exit.o(.text) for _sys_exit
    rtexit2.o(.ARM.exidx) refers to rtexit2.o(.ARM.Collect$$rtexit$$00000001) for .ARM.Collect$$rtexit$$00000001
    rtexit2.o(.ARM.exidx) refers to rtexit2.o(.ARM.Collect$$rtexit$$00000003) for .ARM.Collect$$rtexit$$00000003
    rtexit2.o(.ARM.exidx) refers to rtexit2.o(.ARM.Collect$$rtexit$$00000004) for .ARM.Collect$$rtexit$$00000004
    argv_veneer.o(.emb_text) refers to no_argv.o(.text) for __ARM_get_argv
    sys_exit.o(.text) refers (Special) to use_no_semi.o(.text) for __I$use$semihosting
    sys_exit.o(.text) refers (Special) to indicate_semi.o(.text) for __semihosting_library_function
    _get_argv_nomalloc.o(.text) refers (Special) to hrguard.o(.text) for __heap_region$guard
    _get_argv_nomalloc.o(.text) refers to defsig_rtmem_outer.o(.text) for __rt_SIGRTMEM
    _get_argv_nomalloc.o(.text) refers to sys_command.o(.text) for _sys_command_string
    libshutdown.o(.ARM.Collect$$libshutdown$$00000000) refers (Special) to libshutdown2.o(.ARM.Collect$$libshutdown$$00000006) for __rt_lib_shutdown_fp_trap_1
    libshutdown.o(.ARM.Collect$$libshutdown$$00000000) refers (Special) to libshutdown2.o(.ARM.Collect$$libshutdown$$0000000E) for __rt_lib_shutdown_heap_1
    libshutdown.o(.ARM.Collect$$libshutdown$$00000000) refers (Special) to libshutdown2.o(.ARM.Collect$$libshutdown$$0000000F) for __rt_lib_shutdown_return
    libshutdown.o(.ARM.Collect$$libshutdown$$00000000) refers (Special) to libshutdown2.o(.ARM.Collect$$libshutdown$$00000009) for __rt_lib_shutdown_signal_1
    libshutdown.o(.ARM.Collect$$libshutdown$$00000000) refers (Special) to libshutdown2.o(.ARM.Collect$$libshutdown$$00000003) for __rt_lib_shutdown_stdio_1
    libshutdown.o(.ARM.Collect$$libshutdown$$00000000) refers (Special) to libshutdown2.o(.ARM.Collect$$libshutdown$$0000000B) for __rt_lib_shutdown_user_alloc_1
    sys_command.o(.text) refers (Special) to use_no_semi.o(.text) for __I$use$semihosting
    sys_command.o(.text) refers (Special) to indicate_semi.o(.text) for __semihosting_library_function
    defsig_rtmem_outer.o(.text) refers to defsig_rtmem_inner.o(.text) for __rt_SIGRTMEM_inner
    defsig_rtmem_outer.o(.text) refers to defsig_exit.o(.text) for __sig_exit
    defsig_rtmem_formal.o(.text) refers to rt_raise.o(.text) for __rt_raise
    rt_raise.o(.text) refers to __raise.o(.text) for __raise
    rt_raise.o(.text) refers to sys_exit.o(.text) for _sys_exit
    defsig_exit.o(.text) refers to sys_exit.o(.text) for _sys_exit
    defsig_rtmem_inner.o(.text) refers to defsig_general.o(.text) for __default_signal_display
    __raise.o(.text) refers to defsig.o(CL$$defsig) for __default_signal_handler
    defsig_general.o(.text) refers to sys_wrch.o(.text) for _ttywrch
    sys_wrch.o(.text) refers (Special) to use_no_semi.o(.text) for __I$use$semihosting
    sys_wrch.o(.text) refers (Special) to indicate_semi.o(.text) for __semihosting_library_function
    defsig.o(CL$$defsig) refers to defsig_rtmem_inner.o(.text) for __rt_SIGRTMEM_inner
    defsig_abrt_inner.o(.text) refers to defsig_general.o(.text) for __default_signal_display
    defsig_fpe_inner.o(.text) refers to defsig_general.o(.text) for __default_signal_display
    defsig_rtred_inner.o(.text) refers to defsig_general.o(.text) for __default_signal_display
    defsig_stak_inner.o(.text) refers to defsig_general.o(.text) for __default_signal_display
    defsig_pvfn_inner.o(.text) refers to defsig_general.o(.text) for __default_signal_display
    defsig_cppl_inner.o(.text) refers to defsig_general.o(.text) for __default_signal_display
    defsig_segv_inner.o(.text) refers to defsig_general.o(.text) for __default_signal_display
    defsig_other.o(.text) refers to defsig_general.o(.text) for __default_signal_display


==============================================================================

Removing Unused input sections from the image.

    Removing stm32f10x_usart.o(i.USART_ClearFlag), (6 bytes).
    Removing stm32f10x_usart.o(i.USART_ClearITPendingBit), (12 bytes).
    Removing stm32f10x_usart.o(i.USART_ClockInit), (30 bytes).
    Removing stm32f10x_usart.o(i.USART_ClockStructInit), (12 bytes).
    Removing stm32f10x_usart.o(i.USART_Cmd), (20 bytes).
    Removing stm32f10x_usart.o(i.USART_DMACmd), (16 bytes).
    Removing stm32f10x_usart.o(i.USART_DeInit), (116 bytes).
    Removing stm32f10x_usart.o(i.USART_GetFlagStatus), (14 bytes).
    Removing stm32f10x_usart.o(i.USART_GetITStatus), (62 bytes).
    Removing stm32f10x_usart.o(i.USART_HalfDuplexCmd), (20 bytes).
    Removing stm32f10x_usart.o(i.USART_ITConfig), (48 bytes).
    Removing stm32f10x_usart.o(i.USART_Init), (140 bytes).
    Removing stm32f10x_usart.o(i.USART_IrDACmd), (20 bytes).
    Removing stm32f10x_usart.o(i.USART_IrDAConfig), (16 bytes).
    Removing stm32f10x_usart.o(i.USART_LINBreakDetectLengthConfig), (16 bytes).
    Removing stm32f10x_usart.o(i.USART_LINCmd), (20 bytes).
    Removing stm32f10x_usart.o(i.USART_ReceiveData), (8 bytes).
    Removing stm32f10x_usart.o(i.USART_ReceiverWakeUpCmd), (20 bytes).
    Removing stm32f10x_usart.o(i.USART_SendBreak), (10 bytes).
    Removing stm32f10x_usart.o(i.USART_SendData), (8 bytes).
    Removing stm32f10x_usart.o(i.USART_SetAddress), (16 bytes).
    Removing stm32f10x_usart.o(i.USART_SetGuardTime), (16 bytes).
    Removing stm32f10x_usart.o(i.USART_SetPrescaler), (16 bytes).
    Removing stm32f10x_usart.o(i.USART_SmartCardCmd), (20 bytes).
    Removing stm32f10x_usart.o(i.USART_SmartCardNACKCmd), (20 bytes).
    Removing stm32f10x_usart.o(i.USART_StructInit), (22 bytes).
    Removing stm32f10x_usart.o(i.USART_WakeUpConfig), (16 bytes).
    Removing stm32f10x_gpio.o(i.GPIO_AFIODeInit), (22 bytes).
    Removing stm32f10x_gpio.o(i.GPIO_DeInit), (180 bytes).
    Removing stm32f10x_gpio.o(i.GPIO_EventOutputCmd), (12 bytes).
    Removing stm32f10x_gpio.o(i.GPIO_EventOutputConfig), (28 bytes).
    Removing stm32f10x_gpio.o(i.GPIO_PinLockConfig), (16 bytes).
    Removing stm32f10x_gpio.o(i.GPIO_ReadInputData), (6 bytes).
    Removing stm32f10x_gpio.o(i.GPIO_ReadOutputData), (6 bytes).
    Removing stm32f10x_gpio.o(i.GPIO_ReadOutputDataBit), (14 bytes).
    Removing stm32f10x_gpio.o(i.GPIO_StructInit), (16 bytes).
    Removing stm32f10x_gpio.o(i.GPIO_Write), (4 bytes).
    Removing stm32f10x_rcc.o(i.RCC_ADCCLKConfig), (20 bytes).
    Removing stm32f10x_rcc.o(i.RCC_AdjustHSICalibrationValue), (20 bytes).
    Removing stm32f10x_rcc.o(i.RCC_BackupResetCmd), (12 bytes).
    Removing stm32f10x_rcc.o(i.RCC_ClearFlag), (16 bytes).
    Removing stm32f10x_rcc.o(i.RCC_ClearITPendingBit), (12 bytes).
    Removing stm32f10x_rcc.o(i.RCC_ClockSecuritySystemCmd), (12 bytes).
    Removing stm32f10x_rcc.o(i.RCC_DeInit), (76 bytes).
    Removing stm32f10x_rcc.o(i.RCC_GetITStatus), (20 bytes).
    Removing stm32f10x_rcc.o(i.RCC_GetSYSCLKSource), (16 bytes).
    Removing stm32f10x_rcc.o(i.RCC_HCLKConfig), (20 bytes).
    Removing stm32f10x_rcc.o(i.RCC_HSEConfig), (52 bytes).
    Removing stm32f10x_rcc.o(i.RCC_HSICmd), (12 bytes).
    Removing stm32f10x_rcc.o(i.RCC_I2S2CLKConfig), (12 bytes).
    Removing stm32f10x_rcc.o(i.RCC_I2S3CLKConfig), (12 bytes).
    Removing stm32f10x_rcc.o(i.RCC_ITConfig), (24 bytes).
    Removing stm32f10x_rcc.o(i.RCC_LSEConfig), (32 bytes).
    Removing stm32f10x_rcc.o(i.RCC_LSICmd), (12 bytes).
    Removing stm32f10x_rcc.o(i.RCC_OTGFSCLKConfig), (12 bytes).
    Removing stm32f10x_rcc.o(i.RCC_PCLK1Config), (20 bytes).
    Removing stm32f10x_rcc.o(i.RCC_PCLK2Config), (20 bytes).
    Removing stm32f10x_rcc.o(i.RCC_PLL2Cmd), (12 bytes).
    Removing stm32f10x_rcc.o(i.RCC_PLL2Config), (20 bytes).
    Removing stm32f10x_rcc.o(i.RCC_PLLCmd), (12 bytes).
    Removing stm32f10x_rcc.o(i.RCC_PLLConfig), (20 bytes).
    Removing stm32f10x_rcc.o(i.RCC_PREDIV1Config), (28 bytes).
    Removing stm32f10x_rcc.o(i.RCC_PREDIV2Config), (20 bytes).
    Removing stm32f10x_rcc.o(i.RCC_RTCCLKCmd), (12 bytes).
    Removing stm32f10x_rcc.o(i.RCC_RTCCLKConfig), (16 bytes).
    Removing stm32f10x_rcc.o(i.RCC_SYSCLKConfig), (20 bytes).
    Removing stm32f10x_rcc.o(i.RCC_WaitForHSEStartUp), (44 bytes).
    Removing stm32f10x_spi.o(i.I2S_Cmd), (20 bytes).
    Removing stm32f10x_spi.o(i.I2S_Init), (228 bytes).
    Removing stm32f10x_spi.o(i.I2S_StructInit), (18 bytes).
    Removing stm32f10x_spi.o(i.SPI_BiDirectionalLineConfig), (22 bytes).
    Removing stm32f10x_spi.o(i.SPI_CalculateCRC), (20 bytes).
    Removing stm32f10x_spi.o(i.SPI_DataSizeConfig), (16 bytes).
    Removing stm32f10x_spi.o(i.SPI_GetCRC), (12 bytes).
    Removing stm32f10x_spi.o(i.SPI_GetCRCPolynomial), (4 bytes).
    Removing stm32f10x_spi.o(i.SPI_I2S_ClearFlag), (6 bytes).
    Removing stm32f10x_spi.o(i.SPI_I2S_ClearITPendingBit), (14 bytes).
    Removing stm32f10x_spi.o(i.SPI_I2S_DMACmd), (16 bytes).
    Removing stm32f10x_spi.o(i.SPI_I2S_GetITStatus), (44 bytes).
    Removing stm32f10x_spi.o(i.SPI_I2S_ITConfig), (24 bytes).
    Removing stm32f10x_spi.o(i.SPI_NSSInternalSoftwareConfig), (24 bytes).
    Removing stm32f10x_spi.o(i.SPI_SSOutputCmd), (20 bytes).
    Removing stm32f10x_spi.o(i.SPI_StructInit), (24 bytes).
    Removing stm32f10x_spi.o(i.SPI_TransmitCRC), (10 bytes).
    Removing stm32f10x_exti.o(i.EXTI_ClearFlag), (12 bytes).
    Removing stm32f10x_exti.o(i.EXTI_DeInit), (36 bytes).
    Removing stm32f10x_exti.o(i.EXTI_GenerateSWInterrupt), (16 bytes).
    Removing stm32f10x_exti.o(i.EXTI_GetFlagStatus), (20 bytes).
    Removing stm32f10x_exti.o(i.EXTI_StructInit), (14 bytes).
    Removing stm32f10x_flash.o(i.FLASH_ClearFlag), (12 bytes).
    Removing stm32f10x_flash.o(i.FLASH_EnableWriteProtection), (168 bytes).
    Removing stm32f10x_flash.o(i.FLASH_EraseAllPages), (60 bytes).
    Removing stm32f10x_flash.o(i.FLASH_EraseOptionBytes), (116 bytes).
    Removing stm32f10x_flash.o(i.FLASH_ErasePage), (64 bytes).
    Removing stm32f10x_flash.o(i.FLASH_GetFlagStatus), (32 bytes).
    Removing stm32f10x_flash.o(i.FLASH_GetPrefetchBufferStatus), (20 bytes).
    Removing stm32f10x_flash.o(i.FLASH_GetReadOutProtectionStatus), (20 bytes).
    Removing stm32f10x_flash.o(i.FLASH_GetStatus), (40 bytes).
    Removing stm32f10x_flash.o(i.FLASH_GetUserOptionByte), (12 bytes).
    Removing stm32f10x_flash.o(i.FLASH_GetWriteProtectionOptionByte), (12 bytes).
    Removing stm32f10x_flash.o(i.FLASH_HalfCycleAccessCmd), (24 bytes).
    Removing stm32f10x_flash.o(i.FLASH_ITConfig), (24 bytes).
    Removing stm32f10x_flash.o(i.FLASH_Lock), (16 bytes).
    Removing stm32f10x_flash.o(i.FLASH_PrefetchBufferCmd), (24 bytes).
    Removing stm32f10x_flash.o(i.FLASH_ProgramHalfWord), (56 bytes).
    Removing stm32f10x_flash.o(i.FLASH_ProgramOptionByteData), (72 bytes).
    Removing stm32f10x_flash.o(i.FLASH_ProgramWord), (76 bytes).
    Removing stm32f10x_flash.o(i.FLASH_ReadOutProtection), (136 bytes).
    Removing stm32f10x_flash.o(i.FLASH_SetLatency), (20 bytes).
    Removing stm32f10x_flash.o(i.FLASH_Unlock), (24 bytes).
    Removing stm32f10x_flash.o(i.FLASH_UserOptionByteConfig), (88 bytes).
    Removing stm32f10x_flash.o(i.FLASH_WaitForLastOperation), (46 bytes).
    Removing misc.o(i.NVIC_SystemLPConfig), (24 bytes).
    Removing misc.o(i.SysTick_CLKSourceConfig), (24 bytes).
    Removing stm32f10x_adc.o(i.ADC_AnalogWatchdogCmd), (16 bytes).
    Removing stm32f10x_adc.o(i.ADC_AnalogWatchdogSingleChannelConfig), (12 bytes).
    Removing stm32f10x_adc.o(i.ADC_AnalogWatchdogThresholdsConfig), (6 bytes).
    Removing stm32f10x_adc.o(i.ADC_AutoInjectedConvCmd), (20 bytes).
    Removing stm32f10x_adc.o(i.ADC_ClearFlag), (6 bytes).
    Removing stm32f10x_adc.o(i.ADC_ClearITPendingBit), (8 bytes).
    Removing stm32f10x_adc.o(i.ADC_DMACmd), (20 bytes).
    Removing stm32f10x_adc.o(i.ADC_DeInit), (68 bytes).
    Removing stm32f10x_adc.o(i.ADC_DiscModeChannelCountConfig), (16 bytes).
    Removing stm32f10x_adc.o(i.ADC_DiscModeCmd), (20 bytes).
    Removing stm32f10x_adc.o(i.ADC_ExternalTrigConvCmd), (20 bytes).
    Removing stm32f10x_adc.o(i.ADC_ExternalTrigInjectedConvCmd), (20 bytes).
    Removing stm32f10x_adc.o(i.ADC_ExternalTrigInjectedConvConfig), (12 bytes).
    Removing stm32f10x_adc.o(i.ADC_GetCalibrationStatus), (14 bytes).
    Removing stm32f10x_adc.o(i.ADC_GetDualModeConversionValue), (12 bytes).
    Removing stm32f10x_adc.o(i.ADC_GetFlagStatus), (14 bytes).
    Removing stm32f10x_adc.o(i.ADC_GetITStatus), (28 bytes).
    Removing stm32f10x_adc.o(i.ADC_GetInjectedConversionValue), (14 bytes).
    Removing stm32f10x_adc.o(i.ADC_GetResetCalibrationStatus), (14 bytes).
    Removing stm32f10x_adc.o(i.ADC_GetSoftwareStartConvStatus), (14 bytes).
    Removing stm32f10x_adc.o(i.ADC_GetSoftwareStartInjectedConvCmdStatus), (14 bytes).
    Removing stm32f10x_adc.o(i.ADC_ITConfig), (18 bytes).
    Removing stm32f10x_adc.o(i.ADC_InjectedChannelConfig), (74 bytes).
    Removing stm32f10x_adc.o(i.ADC_InjectedDiscModeCmd), (20 bytes).
    Removing stm32f10x_adc.o(i.ADC_InjectedSequencerLengthConfig), (16 bytes).
    Removing stm32f10x_adc.o(i.ADC_ResetCalibration), (10 bytes).
    Removing stm32f10x_adc.o(i.ADC_SetInjectedOffset), (10 bytes).
    Removing stm32f10x_adc.o(i.ADC_SoftwareStartInjectedConvCmd), (20 bytes).
    Removing stm32f10x_adc.o(i.ADC_StartCalibration), (10 bytes).
    Removing stm32f10x_adc.o(i.ADC_StructInit), (18 bytes).
    Removing stm32f10x_adc.o(i.ADC_TempSensorVrefintCmd), (28 bytes).
    Removing stm32f10x_tim.o(i.TI1_Config), (46 bytes).
    Removing stm32f10x_tim.o(i.TI2_Config), (54 bytes).
    Removing stm32f10x_tim.o(i.TIM_ARRPreloadConfig), (22 bytes).
    Removing stm32f10x_tim.o(i.TIM_BDTRConfig), (34 bytes).
    Removing stm32f10x_tim.o(i.TIM_BDTRStructInit), (18 bytes).
    Removing stm32f10x_tim.o(i.TIM_CCPreloadControl), (20 bytes).
    Removing stm32f10x_tim.o(i.TIM_CCxCmd), (22 bytes).
    Removing stm32f10x_tim.o(i.TIM_CCxNCmd), (22 bytes).
    Removing stm32f10x_tim.o(i.TIM_ClearFlag), (6 bytes).
    Removing stm32f10x_tim.o(i.TIM_ClearITPendingBit), (6 bytes).
    Removing stm32f10x_tim.o(i.TIM_ClearOC1Ref), (12 bytes).
    Removing stm32f10x_tim.o(i.TIM_ClearOC2Ref), (20 bytes).
    Removing stm32f10x_tim.o(i.TIM_ClearOC3Ref), (12 bytes).
    Removing stm32f10x_tim.o(i.TIM_ClearOC4Ref), (20 bytes).
    Removing stm32f10x_tim.o(i.TIM_Cmd), (22 bytes).
    Removing stm32f10x_tim.o(i.TIM_CounterModeConfig), (14 bytes).
    Removing stm32f10x_tim.o(i.TIM_CtrlPWMOutputs), (22 bytes).
    Removing stm32f10x_tim.o(i.TIM_DMACmd), (16 bytes).
    Removing stm32f10x_tim.o(i.TIM_DMAConfig), (8 bytes).
    Removing stm32f10x_tim.o(i.TIM_DeInit), (200 bytes).
    Removing stm32f10x_tim.o(i.TIM_ETRClockMode1Config), (18 bytes).
    Removing stm32f10x_tim.o(i.TIM_ETRClockMode2Config), (18 bytes).
    Removing stm32f10x_tim.o(i.TIM_ETRConfig), (24 bytes).
    Removing stm32f10x_tim.o(i.TIM_EncoderInterfaceConfig), (50 bytes).
    Removing stm32f10x_tim.o(i.TIM_ForcedOC1Config), (12 bytes).
    Removing stm32f10x_tim.o(i.TIM_ForcedOC2Config), (20 bytes).
    Removing stm32f10x_tim.o(i.TIM_ForcedOC3Config), (12 bytes).
    Removing stm32f10x_tim.o(i.TIM_ForcedOC4Config), (20 bytes).
    Removing stm32f10x_tim.o(i.TIM_GenerateEvent), (4 bytes).
    Removing stm32f10x_tim.o(i.TIM_GetCapture1), (4 bytes).
    Removing stm32f10x_tim.o(i.TIM_GetCapture2), (4 bytes).
    Removing stm32f10x_tim.o(i.TIM_GetCapture3), (4 bytes).
    Removing stm32f10x_tim.o(i.TIM_GetCapture4), (6 bytes).
    Removing stm32f10x_tim.o(i.TIM_GetCounter), (4 bytes).
    Removing stm32f10x_tim.o(i.TIM_GetFlagStatus), (14 bytes).
    Removing stm32f10x_tim.o(i.TIM_GetITStatus), (24 bytes).
    Removing stm32f10x_tim.o(i.TIM_GetPrescaler), (4 bytes).
    Removing stm32f10x_tim.o(i.TIM_ICInit), (172 bytes).
    Removing stm32f10x_tim.o(i.TIM_ICStructInit), (16 bytes).
    Removing stm32f10x_tim.o(i.TIM_ITConfig), (16 bytes).
    Removing stm32f10x_tim.o(i.TIM_ITRxExternalClockConfig), (18 bytes).
    Removing stm32f10x_tim.o(i.TIM_InternalClockConfig), (10 bytes).
    Removing stm32f10x_tim.o(i.TIM_OC1FastConfig), (12 bytes).
    Removing stm32f10x_tim.o(i.TIM_OC1Init), (96 bytes).
    Removing stm32f10x_tim.o(i.TIM_OC1NPolarityConfig), (12 bytes).
    Removing stm32f10x_tim.o(i.TIM_OC1PolarityConfig), (12 bytes).
    Removing stm32f10x_tim.o(i.TIM_OC1PreloadConfig), (12 bytes).
    Removing stm32f10x_tim.o(i.TIM_OC2FastConfig), (20 bytes).
    Removing stm32f10x_tim.o(i.TIM_OC2Init), (128 bytes).
    Removing stm32f10x_tim.o(i.TIM_OC2NPolarityConfig), (20 bytes).
    Removing stm32f10x_tim.o(i.TIM_OC2PolarityConfig), (20 bytes).
    Removing stm32f10x_tim.o(i.TIM_OC2PreloadConfig), (20 bytes).
    Removing stm32f10x_tim.o(i.TIM_OC3FastConfig), (12 bytes).
    Removing stm32f10x_tim.o(i.TIM_OC3Init), (124 bytes).
    Removing stm32f10x_tim.o(i.TIM_OC3NPolarityConfig), (20 bytes).
    Removing stm32f10x_tim.o(i.TIM_OC3PolarityConfig), (20 bytes).
    Removing stm32f10x_tim.o(i.TIM_OC3PreloadConfig), (12 bytes).
    Removing stm32f10x_tim.o(i.TIM_OC4FastConfig), (20 bytes).
    Removing stm32f10x_tim.o(i.TIM_OC4Init), (100 bytes).
    Removing stm32f10x_tim.o(i.TIM_OC4PolarityConfig), (20 bytes).
    Removing stm32f10x_tim.o(i.TIM_OC4PreloadConfig), (20 bytes).
    Removing stm32f10x_tim.o(i.TIM_OCStructInit), (20 bytes).
    Removing stm32f10x_tim.o(i.TIM_PWMIConfig), (108 bytes).
    Removing stm32f10x_tim.o(i.TIM_PrescalerConfig), (6 bytes).
    Removing stm32f10x_tim.o(i.TIM_SelectCCDMA), (20 bytes).
    Removing stm32f10x_tim.o(i.TIM_SelectCOM), (20 bytes).
    Removing stm32f10x_tim.o(i.TIM_SelectHallSensor), (20 bytes).
    Removing stm32f10x_tim.o(i.TIM_SelectInputTrigger), (12 bytes).
    Removing stm32f10x_tim.o(i.TIM_SelectMasterSlaveMode), (16 bytes).
    Removing stm32f10x_tim.o(i.TIM_SelectOCxM), (74 bytes).
    Removing stm32f10x_tim.o(i.TIM_SelectOnePulseMode), (18 bytes).
    Removing stm32f10x_tim.o(i.TIM_SelectOutputTrigger), (16 bytes).
    Removing stm32f10x_tim.o(i.TIM_SelectSlaveMode), (16 bytes).
    Removing stm32f10x_tim.o(i.TIM_SetAutoreload), (4 bytes).
    Removing stm32f10x_tim.o(i.TIM_SetClockDivision), (14 bytes).
    Removing stm32f10x_tim.o(i.TIM_SetCompare1), (4 bytes).
    Removing stm32f10x_tim.o(i.TIM_SetCompare2), (4 bytes).
    Removing stm32f10x_tim.o(i.TIM_SetCompare3), (4 bytes).
    Removing stm32f10x_tim.o(i.TIM_SetCompare4), (6 bytes).
    Removing stm32f10x_tim.o(i.TIM_SetCounter), (4 bytes).
    Removing stm32f10x_tim.o(i.TIM_SetIC1Prescaler), (16 bytes).
    Removing stm32f10x_tim.o(i.TIM_SetIC2Prescaler), (24 bytes).
    Removing stm32f10x_tim.o(i.TIM_SetIC3Prescaler), (16 bytes).
    Removing stm32f10x_tim.o(i.TIM_SetIC4Prescaler), (24 bytes).
    Removing stm32f10x_tim.o(i.TIM_TIxExternalClockConfig), (46 bytes).
    Removing stm32f10x_tim.o(i.TIM_TimeBaseInit), (60 bytes).
    Removing stm32f10x_tim.o(i.TIM_TimeBaseStructInit), (18 bytes).
    Removing stm32f10x_tim.o(i.TIM_UpdateDisableConfig), (22 bytes).
    Removing stm32f10x_tim.o(i.TIM_UpdateRequestConfig), (22 bytes).
    Removing stm32f10x_i2c.o(i.I2C_ARPCmd), (20 bytes).
    Removing stm32f10x_i2c.o(i.I2C_CalculatePEC), (20 bytes).
    Removing stm32f10x_i2c.o(i.I2C_ClearFlag), (6 bytes).
    Removing stm32f10x_i2c.o(i.I2C_ClearITPendingBit), (6 bytes).
    Removing stm32f10x_i2c.o(i.I2C_DMACmd), (20 bytes).
    Removing stm32f10x_i2c.o(i.I2C_DMALastTransferCmd), (20 bytes).
    Removing stm32f10x_i2c.o(i.I2C_DeInit), (44 bytes).
    Removing stm32f10x_i2c.o(i.I2C_DualAddressCmd), (20 bytes).
    Removing stm32f10x_i2c.o(i.I2C_FastModeDutyCycleConfig), (22 bytes).
    Removing stm32f10x_i2c.o(i.I2C_GeneralCallCmd), (20 bytes).
    Removing stm32f10x_i2c.o(i.I2C_GetFlagStatus), (42 bytes).
    Removing stm32f10x_i2c.o(i.I2C_GetITStatus), (36 bytes).
    Removing stm32f10x_i2c.o(i.I2C_GetLastEvent), (14 bytes).
    Removing stm32f10x_i2c.o(i.I2C_GetPEC), (6 bytes).
    Removing stm32f10x_i2c.o(i.I2C_ITConfig), (16 bytes).
    Removing stm32f10x_i2c.o(i.I2C_OwnAddress2Config), (16 bytes).
    Removing stm32f10x_i2c.o(i.I2C_PECPositionConfig), (22 bytes).
    Removing stm32f10x_i2c.o(i.I2C_ReadRegister), (10 bytes).
    Removing stm32f10x_i2c.o(i.I2C_SMBusAlertConfig), (22 bytes).
    Removing stm32f10x_i2c.o(i.I2C_StretchClockCmd), (20 bytes).
    Removing stm32f10x_i2c.o(i.I2C_StructInit), (28 bytes).
    Removing stm32f10x_i2c.o(i.I2C_TransmitPEC), (20 bytes).
    Removing stm32_eth.o(i.ETH_BackPressureActivationCmd), (28 bytes).
    Removing stm32_eth.o(i.ETH_DMAClearFlag), (12 bytes).
    Removing stm32_eth.o(i.ETH_DMAPTPRxDescChainInit), (108 bytes).
    Removing stm32_eth.o(i.ETH_DMAPTPTxDescChainInit), (100 bytes).
    Removing stm32_eth.o(i.ETH_DMARxDescEndOfRingCmd), (18 bytes).
    Removing stm32_eth.o(i.ETH_DMARxDescRingInit), (84 bytes).
    Removing stm32_eth.o(i.ETH_DMARxDescSecondAddressChainedCmd), (18 bytes).
    Removing stm32_eth.o(i.ETH_DMATxDescBufferSizeConfig), (12 bytes).
    Removing stm32_eth.o(i.ETH_DMATxDescCRCCmd), (18 bytes).
    Removing stm32_eth.o(i.ETH_DMATxDescEndOfRingCmd), (18 bytes).
    Removing stm32_eth.o(i.ETH_DMATxDescFrameSegmentConfig), (8 bytes).
    Removing stm32_eth.o(i.ETH_DMATxDescRingInit), (68 bytes).
    Removing stm32_eth.o(i.ETH_DMATxDescSecondAddressChainedCmd), (18 bytes).
    Removing stm32_eth.o(i.ETH_DMATxDescShortFramePaddingCmd), (18 bytes).
    Removing stm32_eth.o(i.ETH_DMATxDescTimeStampCmd), (18 bytes).
    Removing stm32_eth.o(i.ETH_DMATxDescTransmitITConfig), (18 bytes).
    Removing stm32_eth.o(i.ETH_DropRxPkt), (52 bytes).
    Removing stm32_eth.o(i.ETH_EnablePTPTimeStampAddend), (16 bytes).
    Removing stm32_eth.o(i.ETH_EnablePTPTimeStampInterruptTrigger), (16 bytes).
    Removing stm32_eth.o(i.ETH_EnablePTPTimeStampUpdate), (16 bytes).
    Removing stm32_eth.o(i.ETH_GetBufferUnavailableMissedFrameCounter), (12 bytes).
    Removing stm32_eth.o(i.ETH_GetCurrentRxBufferAddress), (12 bytes).
    Removing stm32_eth.o(i.ETH_GetCurrentRxDescStartAddress), (12 bytes).
    Removing stm32_eth.o(i.ETH_GetCurrentTxBufferAddress), (12 bytes).
    Removing stm32_eth.o(i.ETH_GetCurrentTxDescStartAddress), (12 bytes).
    Removing stm32_eth.o(i.ETH_GetDMAFlagStatus), (20 bytes).
    Removing stm32_eth.o(i.ETH_GetDMAITStatus), (20 bytes).
    Removing stm32_eth.o(i.ETH_GetDMAOverflowStatus), (20 bytes).
    Removing stm32_eth.o(i.ETH_GetDMARxDescBufferSize), (16 bytes).
    Removing stm32_eth.o(i.ETH_GetDMARxDescFlagStatus), (14 bytes).
    Removing stm32_eth.o(i.ETH_GetDMATxDescCollisionCount), (8 bytes).
    Removing stm32_eth.o(i.ETH_GetDMATxDescFlagStatus), (14 bytes).
    Removing stm32_eth.o(i.ETH_GetFlowControlBusyStatus), (20 bytes).
    Removing stm32_eth.o(i.ETH_GetFlushTransmitFIFOStatus), (20 bytes).
    Removing stm32_eth.o(i.ETH_GetMACAddress), (36 bytes).
    Removing stm32_eth.o(i.ETH_GetMACFlagStatus), (20 bytes).
    Removing stm32_eth.o(i.ETH_GetMACITStatus), (20 bytes).
    Removing stm32_eth.o(i.ETH_GetMMCITStatus), (40 bytes).
    Removing stm32_eth.o(i.ETH_GetMMCRegister), (12 bytes).
    Removing stm32_eth.o(i.ETH_GetPMTFlagStatus), (20 bytes).
    Removing stm32_eth.o(i.ETH_GetPTPFlagStatus), (20 bytes).
    Removing stm32_eth.o(i.ETH_GetPTPRegister), (12 bytes).
    Removing stm32_eth.o(i.ETH_GetReceiveProcessState), (16 bytes).
    Removing stm32_eth.o(i.ETH_GetRxOverflowMissedFrameCounter), (16 bytes).
    Removing stm32_eth.o(i.ETH_GetTransmitProcessState), (16 bytes).
    Removing stm32_eth.o(i.ETH_GlobalUnicastWakeUpCmd), (28 bytes).
    Removing stm32_eth.o(i.ETH_HandlePTPRxPkt), (152 bytes).
    Removing stm32_eth.o(i.ETH_HandlePTPTxPkt), (184 bytes).
    Removing stm32_eth.o(i.ETH_HandleRxPkt), (120 bytes).
    Removing stm32_eth.o(i.ETH_HandleTxPkt), (108 bytes).
    Removing stm32_eth.o(i.ETH_InitializePTPTimeStamp), (16 bytes).
    Removing stm32_eth.o(i.ETH_InitiatePauseControlFrame), (16 bytes).
    Removing stm32_eth.o(i.ETH_MACAddressFilterConfig), (28 bytes).
    Removing stm32_eth.o(i.ETH_MACAddressMaskBytesFilterConfig), (24 bytes).
    Removing stm32_eth.o(i.ETH_MACAddressPerfectFilterCmd), (28 bytes).
    Removing stm32_eth.o(i.ETH_MACITConfig), (24 bytes).
    Removing stm32_eth.o(i.ETH_MMCCounterFreezeCmd), (32 bytes).
    Removing stm32_eth.o(i.ETH_MMCCounterRolloverCmd), (32 bytes).
    Removing stm32_eth.o(i.ETH_MMCCountersReset), (20 bytes).
    Removing stm32_eth.o(i.ETH_MMCITConfig), (56 bytes).
    Removing stm32_eth.o(i.ETH_MMCResetOnReadCmd), (32 bytes).
    Removing stm32_eth.o(i.ETH_MagicPacketDetectionCmd), (28 bytes).
    Removing stm32_eth.o(i.ETH_PHYLoopBackCmd), (40 bytes).
    Removing stm32_eth.o(i.ETH_PTPTimeStampCmd), (28 bytes).
    Removing stm32_eth.o(i.ETH_PTPUpdateMethodConfig), (28 bytes).
    Removing stm32_eth.o(i.ETH_PowerDownCmd), (28 bytes).
    Removing stm32_eth.o(i.ETH_ResetWakeUpFrameFilterRegisterPointer), (16 bytes).
    Removing stm32_eth.o(i.ETH_ResumeDMAReception), (12 bytes).
    Removing stm32_eth.o(i.ETH_ResumeDMATransmission), (12 bytes).
    Removing stm32_eth.o(i.ETH_SetDMARxDescOwnBit), (10 bytes).
    Removing stm32_eth.o(i.ETH_SetDMATxDescOwnBit), (10 bytes).
    Removing stm32_eth.o(i.ETH_SetPTPSubSecondIncrement), (12 bytes).
    Removing stm32_eth.o(i.ETH_SetPTPTargetTime), (16 bytes).
    Removing stm32_eth.o(i.ETH_SetPTPTimeStampAddend), (12 bytes).
    Removing stm32_eth.o(i.ETH_SetPTPTimeStampUpdate), (16 bytes).
    Removing stm32_eth.o(i.ETH_SetWakeUpFrameFilterRegister), (24 bytes).
    Removing stm32_eth.o(i.ETH_WakeUpFrameDetectionCmd), (28 bytes).
    Removing stm3210c_eval_ioe.o(i.IOE_ClearIOITPending), (46 bytes).
    Removing stm3210c_eval_ioe.o(i.IOE_GetIOITStatus), (18 bytes).
    Removing stm3210c_eval_ioe.o(i.IOE_JoyStickGetState), (62 bytes).
    Removing stm3210c_eval_ioe.o(i.IOE_ReadIOPin), (40 bytes).
    Removing stm3210c_eval_ioe.o(i.IOE_TempSens_GetData), (80 bytes).
    Removing stm32_eval.o(i.STM_EVAL_COMInit), (140 bytes).
    Removing stm3210c_eval_lcd.o(i.LCD_ClearLine), (32 bytes).
    Removing stm3210c_eval_lcd.o(i.LCD_DisplayOff), (8 bytes).
    Removing stm3210c_eval_lcd.o(i.LCD_DisplayOn), (10 bytes).
    Removing stm3210c_eval_lcd.o(i.LCD_DrawCircle), (236 bytes).
    Removing stm3210c_eval_lcd.o(i.LCD_DrawMonoPict), (88 bytes).
    Removing stm3210c_eval_lcd.o(i.LCD_PowerOn), (120 bytes).
    Removing stm3210c_eval_lcd.o(i.LCD_ReadReg), (192 bytes).
    Removing stm3210c_eval_lcd.o(i.LCD_SetDisplayWindow), (76 bytes).
    Removing stm3210c_eval_lcd.o(i.LCD_WindowModeDisable), (30 bytes).
    Removing ethernetif.o(.data), (4 bytes).
    Removing ethernetif.o(.data), (4 bytes).
    Removing ethernetif.o(.data), (4 bytes).
    Removing tcp.o(i.tcp_setprio), (4 bytes).
    Removing dhcp.o(i.dhcp_inform), (188 bytes).
    Removing init.o(i.lwip_init), (14 bytes).
    Removing netif.o(i.netif_find), (64 bytes).
    Removing netif.o(i.netif_remove), (56 bytes).
    Removing pbuf.o(i.pbuf_coalesce), (44 bytes).
    Removing pbuf.o(i.pbuf_dechain), (38 bytes).
    Removing pbuf.o(i.pbuf_take), (78 bytes).
    Removing raw.o(i.raw_bind), (10 bytes).
    Removing raw.o(i.raw_connect), (10 bytes).
    Removing raw.o(i.raw_new), (44 bytes).
    Removing raw.o(i.raw_recv), (6 bytes).
    Removing raw.o(i.raw_remove), (44 bytes).
    Removing raw.o(i.raw_send), (6 bytes).
    Removing raw.o(i.raw_sendto), (138 bytes).
    Removing inet.o(i.inet_addr), (20 bytes).
    Removing inet.o(i.inet_aton), (238 bytes).
    Removing inet.o(i.inet_ntoa), (88 bytes).
    Removing inet.o(.bss), (16 bytes).
    Removing inet_chksum.o(i.inet_chksum_pseudo), (134 bytes).
    Removing ip.o(i.ip_current_header), (12 bytes).
    Removing ip.o(i.ip_current_netif), (12 bytes).
    Removing ip_frag.o(i.ip_reass_tmr), (44 bytes).
    Removing etharp.o(i.etharp_find_addr), (56 bytes).
    Removing extract.o(i.ex_setPartitionField), (2 bytes).
    Removing extract.o(i.ex_setb16), (10 bytes).
    Removing extract.o(i.ex_setb32), (18 bytes).
    Removing fat.o(i.fat_countFreeClusters), (38 bytes).
    Removing fat.o(i.fat_unlinkClusterChain), (72 bytes).
    Removing fs.o(i.fs_getFsInfo), (116 bytes).
    Removing fs.o(i.fs_sectorToCluster), (48 bytes).
    Removing fs.o(i.fs_setFsInfo), (104 bytes).
    Removing ioman.o(i.ioman_decRefCnt), (26 bytes).
    Removing ioman.o(i.ioman_flushAll), (68 bytes).
    Removing ioman.o(i.ioman_getBuffer), (4 bytes).
    Removing ioman.o(i.ioman_printStatus), (30 bytes).
    Removing ioman.o(i.ioman_resetRefCnt), (20 bytes).
    Removing ioman.o(i.ioman_resetUseCnt), (20 bytes).
    Removing ls.o(i.ls_fileEntryToDirListEntry), (44 bytes).
    Removing ls.o(i.ls_getDirEntry), (22 bytes).
    Removing ls.o(i.ls_getNext), (48 bytes).
    Removing ls.o(i.ls_getRealDirEntry), (106 bytes).
    Removing ls.o(i.ls_getRootAreaEntry), (78 bytes).
    Removing ls.o(i.ls_isValidFileEntry), (28 bytes).
    Removing mkfs.o(i.mkfs_makevfat), (388 bytes).
    Removing partition.o(i.part_readBuf), (28 bytes).
    Removing partition.o(i.part_writeBuf), (28 bytes).
    Removing plibc.o(i.memSet), (16 bytes).
    Removing time.o(i.fs_makeDate), (4 bytes).
    Removing time.o(i.fs_makeTime), (4 bytes).
    Removing ui.o(i.listFiles), (236 bytes).
    Removing ui.o(i.mkdir), (368 bytes).
    Removing ui.o(i.rmfile), (120 bytes).
    Removing sd.o(i.sd_Resp8bError), (2 bytes).
    Removing sd_stm32.o(i.if_setPos), (4 bytes).
    Removing system_stm32f10x.o(.constdata), (4 bytes).
    Removing system_stm32f10x.o(.constdata), (4 bytes).
    Removing system_stm32f10x.o(.constdata), (4 bytes).
    Removing system_stm32f10x.o(.constdata), (4 bytes).
    Removing system_stm32f10x.o(.constdata), (4 bytes).
    Removing core_cm3.o(.emb_text), (32 bytes).

412 unused section(s) (total 13986 bytes) removed from the image.

==============================================================================

Image Symbol Table

    Local Symbols

    Symbol Name                              Value     Ov Type        Size  Object(Section)

    ../clib/angel/boardlib.s                 0x00000000   Number         0  boardinit1.o ABSOLUTE
    ../clib/angel/boardlib.s                 0x00000000   Number         0  boardinit2.o ABSOLUTE
    ../clib/angel/boardlib.s                 0x00000000   Number         0  boardinit3.o ABSOLUTE
    ../clib/angel/boardlib.s                 0x00000000   Number         0  boardshut.o ABSOLUTE
    ../clib/angel/dclz77c.s                  0x00000000   Number         0  __dclz77c.o ABSOLUTE
    ../clib/angel/handlers.s                 0x00000000   Number         0  __scatter_zi.o ABSOLUTE
    ../clib/angel/kernel.s                   0x00000000   Number         0  rtexit2.o ABSOLUTE
    ../clib/angel/kernel.s                   0x00000000   Number         0  __rtentry.o ABSOLUTE
    ../clib/angel/kernel.s                   0x00000000   Number         0  __rtentry2.o ABSOLUTE
    ../clib/angel/kernel.s                   0x00000000   Number         0  __rtentry4.o ABSOLUTE
    ../clib/angel/kernel.s                   0x00000000   Number         0  rtexit.o ABSOLUTE
    ../clib/angel/rt.s                       0x00000000   Number         0  rt_raise.o ABSOLUTE
    ../clib/angel/scatter.s                  0x00000000   Number         0  __scatter.o ABSOLUTE
    ../clib/angel/startup.s                  0x00000000   Number         0  __main.o ABSOLUTE
    ../clib/angel/sys.s                      0x00000000   Number         0  sys_stackheap_outer.o ABSOLUTE
    ../clib/angel/sys.s                      0x00000000   Number         0  libspace.o ABSOLUTE
    ../clib/angel/sys.s                      0x00000000   Number         0  use_no_semi.o ABSOLUTE
    ../clib/angel/sys.s                      0x00000000   Number         0  indicate_semi.o ABSOLUTE
    ../clib/angel/sysapp.c                   0x00000000   Number         0  sys_wrch.o ABSOLUTE
    ../clib/angel/sysapp.c                   0x00000000   Number         0  sys_exit.o ABSOLUTE
    ../clib/angel/sysapp.c                   0x00000000   Number         0  sys_command.o ABSOLUTE
    ../clib/armsys.c                         0x00000000   Number         0  argv_veneer.o ABSOLUTE
    ../clib/armsys.c                         0x00000000   Number         0  argv_veneer.o ABSOLUTE
    ../clib/armsys.c                         0x00000000   Number         0  _get_argv_nomalloc.o ABSOLUTE
    ../clib/armsys.c                         0x00000000   Number         0  no_argv.o ABSOLUTE
    ../clib/heapalloc.c                      0x00000000   Number         0  hrguard.o ABSOLUTE
    ../clib/heapaux.c                        0x00000000   Number         0  heapauxi.o ABSOLUTE
    ../clib/libinit.s                        0x00000000   Number         0  libinit2.o ABSOLUTE
    ../clib/libinit.s                        0x00000000   Number         0  libinit.o ABSOLUTE
    ../clib/libinit.s                        0x00000000   Number         0  libshutdown.o ABSOLUTE
    ../clib/libinit.s                        0x00000000   Number         0  libshutdown2.o ABSOLUTE
    ../clib/memcpset.s                       0x00000000   Number         0  strcmpv7m.o ABSOLUTE
    ../clib/memcpset.s                       0x00000000   Number         0  rt_memcpy_v6.o ABSOLUTE
    ../clib/memcpset.s                       0x00000000   Number         0  rt_memcpy_w.o ABSOLUTE
    ../clib/memcpset.s                       0x00000000   Number         0  rt_memclr.o ABSOLUTE
    ../clib/memcpset.s                       0x00000000   Number         0  rt_memclr_w.o ABSOLUTE
    ../clib/printf.c                         0x00000000   Number         0  noretval__2sprintf.o ABSOLUTE
    ../clib/printf.c                         0x00000000   Number         0  __printf_flags_ss.o ABSOLUTE
    ../clib/printf.c                         0x00000000   Number         0  _sputc.o ABSOLUTE
    ../clib/printf.c                         0x00000000   Number         0  __printf_wp.o ABSOLUTE
    ../clib/printf.c                         0x00000000   Number         0  __printf_flags.o ABSOLUTE
    ../clib/printf.c                         0x00000000   Number         0  __2sprintf.o ABSOLUTE
    ../clib/printf.c                         0x00000000   Number         0  __printf.o ABSOLUTE
    ../clib/printf.c                         0x00000000   Number         0  _printf_char_common.o ABSOLUTE
    ../clib/printf.c                         0x00000000   Number         0  __printf_flags_wp.o ABSOLUTE
    ../clib/printf.c                         0x00000000   Number         0  __printf_flags_ss_wp.o ABSOLUTE
    ../clib/printf.c                         0x00000000   Number         0  __printf_ss.o ABSOLUTE
    ../clib/printf.c                         0x00000000   Number         0  _printf_intcommon.o ABSOLUTE
    ../clib/printf.c                         0x00000000   Number         0  __printf_nopercent.o ABSOLUTE
    ../clib/printf.c                         0x00000000   Number         0  __printf_ss_wp.o ABSOLUTE
    ../clib/printf.c                         0x00000000   Number         0  _printf_dec.o ABSOLUTE
    ../clib/printf_percent.s                 0x00000000   Number         0  _printf_percent.o ABSOLUTE
    ../clib/printf_percent.s                 0x00000000   Number         0  _printf_d.o ABSOLUTE
    ../clib/printf_percent.s                 0x00000000   Number         0  _printf_percent_end.o ABSOLUTE
    ../clib/signal.c                         0x00000000   Number         0  defsig_exit.o ABSOLUTE
    ../clib/signal.c                         0x00000000   Number         0  defsig_rtmem_inner.o ABSOLUTE
    ../clib/signal.c                         0x00000000   Number         0  __raise.o ABSOLUTE
    ../clib/signal.c                         0x00000000   Number         0  defsig_general.o ABSOLUTE
    ../clib/signal.c                         0x00000000   Number         0  defsig_abrt_inner.o ABSOLUTE
    ../clib/signal.c                         0x00000000   Number         0  defsig_rtred_inner.o ABSOLUTE
    ../clib/signal.c                         0x00000000   Number         0  defsig_other.o ABSOLUTE
    ../clib/signal.c                         0x00000000   Number         0  defsig_rtmem_outer.o ABSOLUTE
    ../clib/signal.c                         0x00000000   Number         0  defsig_stak_inner.o ABSOLUTE
    ../clib/signal.c                         0x00000000   Number         0  defsig_rtmem_formal.o ABSOLUTE
    ../clib/signal.c                         0x00000000   Number         0  defsig_segv_inner.o ABSOLUTE
    ../clib/signal.c                         0x00000000   Number         0  defsig_cppl_inner.o ABSOLUTE
    ../clib/signal.c                         0x00000000   Number         0  defsig_pvfn_inner.o ABSOLUTE
    ../clib/signal.c                         0x00000000   Number         0  defsig_fpe_inner.o ABSOLUTE
    ../clib/signal.s                         0x00000000   Number         0  defsig.o ABSOLUTE
    ../clib/stdlib.c                         0x00000000   Number         0  exit.o ABSOLUTE
    ../clib/string.c                         0x00000000   Number         0  strcpy.o ABSOLUTE
    ../clib/string.c                         0x00000000   Number         0  strncmp.o ABSOLUTE
    ../clib/string.c                         0x00000000   Number         0  strlen.o ABSOLUTE
    ../fplib/fpinit.s                        0x00000000   Number         0  fpinit.o ABSOLUTE
    ..\..\Libraries\CMSIS\Core\CM3\core_cm3.c 0x00000000   Number         0  core_cm3.o ABSOLUTE
    ..\..\Libraries\CMSIS\Core\CM3\startup\arm\startup_stm32f10x_cl.s 0x00000000   Number         0  startup_stm32f10x_cl.o ABSOLUTE
    ..\..\Libraries\CMSIS\Core\CM3\system_stm32f10x.c 0x00000000   Number         0  system_stm32f10x.o ABSOLUTE
    ..\..\Libraries\STM32F10x_StdPeriph_Driver\src\misc.c 0x00000000   Number         0  misc.o ABSOLUTE
    ..\..\Libraries\STM32F10x_StdPeriph_Driver\src\stm32f10x_adc.c 0x00000000   Number         0  stm32f10x_adc.o ABSOLUTE
    ..\..\Libraries\STM32F10x_StdPeriph_Driver\src\stm32f10x_exti.c 0x00000000   Number         0  stm32f10x_exti.o ABSOLUTE
    ..\..\Libraries\STM32F10x_StdPeriph_Driver\src\stm32f10x_flash.c 0x00000000   Number         0  stm32f10x_flash.o ABSOLUTE
    ..\..\Libraries\STM32F10x_StdPeriph_Driver\src\stm32f10x_gpio.c 0x00000000   Number         0  stm32f10x_gpio.o ABSOLUTE
    ..\..\Libraries\STM32F10x_StdPeriph_Driver\src\stm32f10x_i2c.c 0x00000000   Number         0  stm32f10x_i2c.o ABSOLUTE
    ..\..\Libraries\STM32F10x_StdPeriph_Driver\src\stm32f10x_rcc.c 0x00000000   Number         0  stm32f10x_rcc.o ABSOLUTE
    ..\..\Libraries\STM32F10x_StdPeriph_Driver\src\stm32f10x_spi.c 0x00000000   Number         0  stm32f10x_spi.o ABSOLUTE
    ..\..\Libraries\STM32F10x_StdPeriph_Driver\src\stm32f10x_tim.c 0x00000000   Number         0  stm32f10x_tim.o ABSOLUTE
    ..\..\Libraries\STM32F10x_StdPeriph_Driver\src\stm32f10x_usart.c 0x00000000   Number         0  stm32f10x_usart.o ABSOLUTE
    ..\..\Libraries\STM32_ETH_Driver\src\stm32_eth.c 0x00000000   Number         0  stm32_eth.o ABSOLUTE
    ..\..\Utilities\STM32_EVAL\STM3210C_EVAL\stm3210c_eval_ioe.c 0x00000000   Number         0  stm3210c_eval_ioe.o ABSOLUTE
    ..\..\Utilities\STM32_EVAL\STM3210C_EVAL\stm3210c_eval_lcd.c 0x00000000   Number         0  stm3210c_eval_lcd.o ABSOLUTE
    ..\..\Utilities\STM32_EVAL\stm32_eval.c  0x00000000   Number         0  stm32_eval.o ABSOLUTE
    ..\..\Utilities\efsl\source\dir.c        0x00000000   Number         0  dir.o ABSOLUTE
    ..\..\Utilities\efsl\source\disc.c       0x00000000   Number         0  disc.o ABSOLUTE
    ..\..\Utilities\efsl\source\efs.c        0x00000000   Number         0  efs.o ABSOLUTE
    ..\..\Utilities\efsl\source\extract.c    0x00000000   Number         0  extract.o ABSOLUTE
    ..\..\Utilities\efsl\source\fat.c        0x00000000   Number         0  fat.o ABSOLUTE
    ..\..\Utilities\efsl\source\file.c       0x00000000   Number         0  file.o ABSOLUTE
    ..\..\Utilities\efsl\source\fs.c         0x00000000   Number         0  fs.o ABSOLUTE
    ..\..\Utilities\efsl\source\interface\sd.c 0x00000000   Number         0  sd.o ABSOLUTE
    ..\..\Utilities\efsl\source\interface\sd_stm32.c 0x00000000   Number         0  sd_stm32.o ABSOLUTE
    ..\..\Utilities\efsl\source\ioman.c      0x00000000   Number         0  ioman.o ABSOLUTE
    ..\..\Utilities\efsl\source\ls.c         0x00000000   Number         0  ls.o ABSOLUTE
    ..\..\Utilities\efsl\source\mkfs.c       0x00000000   Number         0  mkfs.o ABSOLUTE
    ..\..\Utilities\efsl\source\partition.c  0x00000000   Number         0  partition.o ABSOLUTE
    ..\..\Utilities\efsl\source\plibc.c      0x00000000   Number         0  plibc.o ABSOLUTE
    ..\..\Utilities\efsl\source\time.c       0x00000000   Number         0  time.o ABSOLUTE
    ..\..\Utilities\efsl\source\ui.c         0x00000000   Number         0  ui.o ABSOLUTE
    ..\..\Utilities\lwip-1.3.1\port\client.c 0x00000000   Number         0  client.o ABSOLUTE
    ..\..\Utilities\lwip-1.3.1\port\ethernetif.c 0x00000000   Number         0  ethernetif.o ABSOLUTE
    ..\..\Utilities\lwip-1.3.1\port\helloworld.c 0x00000000   Number         0  helloworld.o ABSOLUTE
    ..\..\Utilities\lwip-1.3.1\port\httpd.c  0x00000000   Number         0  httpd.o ABSOLUTE
    ..\..\Utilities\lwip-1.3.1\port\server.c 0x00000000   Number         0  server.o ABSOLUTE
    ..\..\Utilities\lwip-1.3.1\port\tftpserver.c 0x00000000   Number         0  tftpserver.o ABSOLUTE
    ..\..\Utilities\lwip-1.3.1\port\tftputils.c 0x00000000   Number         0  tftputils.o ABSOLUTE
    ..\..\Utilities\lwip-1.3.1\src\api\api_lib.c 0x00000000   Number         0  api_lib.o ABSOLUTE
    ..\..\Utilities\lwip-1.3.1\src\api\api_msg.c 0x00000000   Number         0  api_msg.o ABSOLUTE
    ..\..\Utilities\lwip-1.3.1\src\api\err.c 0x00000000   Number         0  err.o ABSOLUTE
    ..\..\Utilities\lwip-1.3.1\src\api\netbuf.c 0x00000000   Number         0  netbuf.o ABSOLUTE
    ..\..\Utilities\lwip-1.3.1\src\api\netdb.c 0x00000000   Number         0  netdb.o ABSOLUTE
    ..\..\Utilities\lwip-1.3.1\src\api\netifapi.c 0x00000000   Number         0  netifapi.o ABSOLUTE
    ..\..\Utilities\lwip-1.3.1\src\api\tcpip.c 0x00000000   Number         0  tcpip.o ABSOLUTE
    ..\..\Utilities\lwip-1.3.1\src\core\dhcp.c 0x00000000   Number         0  dhcp.o ABSOLUTE
    ..\..\Utilities\lwip-1.3.1\src\core\init.c 0x00000000   Number         0  init.o ABSOLUTE
    ..\..\Utilities\lwip-1.3.1\src\core\ipv4\autoip.c 0x00000000   Number         0  autoip.o ABSOLUTE
    ..\..\Utilities\lwip-1.3.1\src\core\ipv4\icmp.c 0x00000000   Number         0  icmp.o ABSOLUTE
    ..\..\Utilities\lwip-1.3.1\src\core\ipv4\igmp.c 0x00000000   Number         0  igmp.o ABSOLUTE
    ..\..\Utilities\lwip-1.3.1\src\core\ipv4\inet.c 0x00000000   Number         0  inet.o ABSOLUTE
    ..\..\Utilities\lwip-1.3.1\src\core\ipv4\inet_chksum.c 0x00000000   Number         0  inet_chksum.o ABSOLUTE
    ..\..\Utilities\lwip-1.3.1\src\core\ipv4\ip.c 0x00000000   Number         0  ip.o ABSOLUTE
    ..\..\Utilities\lwip-1.3.1\src\core\ipv4\ip_addr.c 0x00000000   Number         0  ip_addr.o ABSOLUTE
    ..\..\Utilities\lwip-1.3.1\src\core\ipv4\ip_frag.c 0x00000000   Number         0  ip_frag.o ABSOLUTE
    ..\..\Utilities\lwip-1.3.1\src\core\mem.c 0x00000000   Number         0  mem.o ABSOLUTE
    ..\..\Utilities\lwip-1.3.1\src\core\memp.c 0x00000000   Number         0  memp.o ABSOLUTE
    ..\..\Utilities\lwip-1.3.1\src\core\netif.c 0x00000000   Number         0  netif.o ABSOLUTE
    ..\..\Utilities\lwip-1.3.1\src\core\pbuf.c 0x00000000   Number         0  pbuf.o ABSOLUTE
    ..\..\Utilities\lwip-1.3.1\src\core\raw.c 0x00000000   Number         0  raw.o ABSOLUTE
    ..\..\Utilities\lwip-1.3.1\src\core\stats.c 0x00000000   Number         0  stats.o ABSOLUTE
    ..\..\Utilities\lwip-1.3.1\src\core\sys.c 0x00000000   Number         0  sys.o ABSOLUTE
    ..\..\Utilities\lwip-1.3.1\src\core\tcp.c 0x00000000   Number         0  tcp.o ABSOLUTE
    ..\..\Utilities\lwip-1.3.1\src\core\tcp_in.c 0x00000000   Number         0  tcp_in.o ABSOLUTE
    ..\..\Utilities\lwip-1.3.1\src\core\tcp_out.c 0x00000000   Number         0  tcp_out.o ABSOLUTE
    ..\..\Utilities\lwip-1.3.1\src\core\udp.c 0x00000000   Number         0  udp.o ABSOLUTE
    ..\..\Utilities\lwip-1.3.1\src\netif\etharp.c 0x00000000   Number         0  etharp.o ABSOLUTE
    ..\\..\\Libraries\\CMSIS\\Core\\CM3\\core_cm3.c 0x00000000   Number         0  core_cm3.o ABSOLUTE
    ..\src\main.c                            0x00000000   Number         0  main.o ABSOLUTE
    ..\src\netconf.c                         0x00000000   Number         0  netconf.o ABSOLUTE
    ..\src\stm32f107.c                       0x00000000   Number         0  stm32f107.o ABSOLUTE
    ..\src\stm32f10x_it.c                    0x00000000   Number         0  stm32f10x_it.o ABSOLUTE
    dc.s                                     0x00000000   Number         0  dc.o ABSOLUTE
    RESET                                    0x08000000   Section      336  startup_stm32f10x_cl.o(RESET)
    !!!main                                  0x08000150   Section        8  __main.o(!!!main)
    !!!scatter                               0x08000158   Section       52  __scatter.o(!!!scatter)
    !!dclz77c                                0x0800018c   Section      100  __dclz77c.o(!!dclz77c)
    !!handler_zi                             0x080001f0   Section       28  __scatter_zi.o(!!handler_zi)
    .ARM.Collect$$_printf_percent$$00000000  0x0800020c   Section        0  _printf_percent.o(.ARM.Collect$$_printf_percent$$00000000)
    .ARM.Collect$$_printf_percent$$00000009  0x0800020c   Section        6  _printf_d.o(.ARM.Collect$$_printf_percent$$00000009)
    .ARM.Collect$$_printf_percent$$00000017  0x08000212   Section        4  _printf_percent_end.o(.ARM.Collect$$_printf_percent$$00000017)
    .ARM.Collect$$libinit$$00000000          0x08000216   Section        2  libinit.o(.ARM.Collect$$libinit$$00000000)
    .ARM.Collect$$libinit$$00000002          0x08000218   Section        0  libinit2.o(.ARM.Collect$$libinit$$00000002)
    .ARM.Collect$$libinit$$00000004          0x08000218   Section        0  libinit2.o(.ARM.Collect$$libinit$$00000004)
    .ARM.Collect$$libinit$$0000000A          0x08000218   Section        0  libinit2.o(.ARM.Collect$$libinit$$0000000A)
    .ARM.Collect$$libinit$$0000000C          0x08000218   Section        0  libinit2.o(.ARM.Collect$$libinit$$0000000C)
    .ARM.Collect$$libinit$$0000000E          0x08000218   Section        0  libinit2.o(.ARM.Collect$$libinit$$0000000E)
    .ARM.Collect$$libinit$$00000011          0x08000218   Section        0  libinit2.o(.ARM.Collect$$libinit$$00000011)
    .ARM.Collect$$libinit$$00000013          0x08000218   Section        0  libinit2.o(.ARM.Collect$$libinit$$00000013)
    .ARM.Collect$$libinit$$00000015          0x08000218   Section        0  libinit2.o(.ARM.Collect$$libinit$$00000015)
    .ARM.Collect$$libinit$$00000017          0x08000218   Section        0  libinit2.o(.ARM.Collect$$libinit$$00000017)
    .ARM.Collect$$libinit$$00000019          0x08000218   Section        0  libinit2.o(.ARM.Collect$$libinit$$00000019)
    .ARM.Collect$$libinit$$0000001B          0x08000218   Section        0  libinit2.o(.ARM.Collect$$libinit$$0000001B)
    .ARM.Collect$$libinit$$0000001D          0x08000218   Section        0  libinit2.o(.ARM.Collect$$libinit$$0000001D)
    .ARM.Collect$$libinit$$0000001F          0x08000218   Section        0  libinit2.o(.ARM.Collect$$libinit$$0000001F)
    .ARM.Collect$$libinit$$00000021          0x08000218   Section        0  libinit2.o(.ARM.Collect$$libinit$$00000021)
    .ARM.Collect$$libinit$$00000023          0x08000218   Section        0  libinit2.o(.ARM.Collect$$libinit$$00000023)
    .ARM.Collect$$libinit$$00000025          0x08000218   Section        0  libinit2.o(.ARM.Collect$$libinit$$00000025)
    .ARM.Collect$$libinit$$0000002C          0x08000218   Section        0  libinit2.o(.ARM.Collect$$libinit$$0000002C)
    .ARM.Collect$$libinit$$0000002E          0x08000218   Section        0  libinit2.o(.ARM.Collect$$libinit$$0000002E)
    .ARM.Collect$$libinit$$00000030          0x08000218   Section        0  libinit2.o(.ARM.Collect$$libinit$$00000030)
    .ARM.Collect$$libinit$$00000032          0x08000218   Section        0  libinit2.o(.ARM.Collect$$libinit$$00000032)
    .ARM.Collect$$libinit$$00000033          0x08000218   Section        2  libinit2.o(.ARM.Collect$$libinit$$00000033)
    .ARM.Collect$$libshutdown$$00000000      0x0800021a   Section        2  libshutdown.o(.ARM.Collect$$libshutdown$$00000000)
    .ARM.Collect$$libshutdown$$00000003      0x0800021c   Section        0  libshutdown2.o(.ARM.Collect$$libshutdown$$00000003)
    .ARM.Collect$$libshutdown$$00000006      0x0800021c   Section        0  libshutdown2.o(.ARM.Collect$$libshutdown$$00000006)
    .ARM.Collect$$libshutdown$$00000009      0x0800021c   Section        0  libshutdown2.o(.ARM.Collect$$libshutdown$$00000009)
    .ARM.Collect$$libshutdown$$0000000B      0x0800021c   Section        0  libshutdown2.o(.ARM.Collect$$libshutdown$$0000000B)
    .ARM.Collect$$libshutdown$$0000000E      0x0800021c   Section        0  libshutdown2.o(.ARM.Collect$$libshutdown$$0000000E)
    .ARM.Collect$$libshutdown$$0000000F      0x0800021c   Section        2  libshutdown2.o(.ARM.Collect$$libshutdown$$0000000F)
    .ARM.Collect$$rtentry$$00000000          0x0800021e   Section        0  __rtentry.o(.ARM.Collect$$rtentry$$00000000)
    .ARM.Collect$$rtentry$$00000002          0x0800021e   Section        0  __rtentry2.o(.ARM.Collect$$rtentry$$00000002)
    .ARM.Collect$$rtentry$$00000004          0x0800021e   Section        6  __rtentry4.o(.ARM.Collect$$rtentry$$00000004)
    .ARM.Collect$$rtentry$$00000009          0x08000224   Section        0  __rtentry2.o(.ARM.Collect$$rtentry$$00000009)
    .ARM.Collect$$rtentry$$0000000A          0x08000224   Section        4  __rtentry2.o(.ARM.Collect$$rtentry$$0000000A)
    .ARM.Collect$$rtentry$$0000000C          0x08000228   Section        0  __rtentry2.o(.ARM.Collect$$rtentry$$0000000C)
    .ARM.Collect$$rtentry$$0000000D          0x08000228   Section        8  __rtentry2.o(.ARM.Collect$$rtentry$$0000000D)
    .ARM.Collect$$rtexit$$00000000           0x08000230   Section        2  rtexit.o(.ARM.Collect$$rtexit$$00000000)
    .ARM.Collect$$rtexit$$00000002           0x08000232   Section        0  rtexit2.o(.ARM.Collect$$rtexit$$00000002)
    .ARM.Collect$$rtexit$$00000003           0x08000232   Section        4  rtexit2.o(.ARM.Collect$$rtexit$$00000003)
    .ARM.Collect$$rtexit$$00000004           0x08000236   Section        6  rtexit2.o(.ARM.Collect$$rtexit$$00000004)
    .text                                    0x0800023c   Section       56  startup_stm32f10x_cl.o(.text)
    .text                                    0x08000274   Section        0  noretval__2sprintf.o(.text)
    .text                                    0x0800029c   Section        0  __printf.o(.text)
    .text                                    0x08000304   Section        0  _printf_dec.o(.text)
    .text                                    0x0800037c   Section        0  strcpy.o(.text)
    .text                                    0x080003c4   Section        0  strlen.o(.text)
    .text                                    0x08000402   Section        0  strncmp.o(.text)
    .text                                    0x08000498   Section      138  rt_memcpy_v6.o(.text)
    .text                                    0x08000522   Section      100  rt_memcpy_w.o(.text)
    .text                                    0x08000586   Section       68  rt_memclr.o(.text)
    .text                                    0x080005ca   Section       78  rt_memclr_w.o(.text)
    .text                                    0x08000618   Section      128  strcmpv7m.o(.text)
    .text                                    0x08000698   Section        0  heapauxi.o(.text)
    .text                                    0x0800069e   Section        0  _printf_intcommon.o(.text)
    .text                                    0x08000750   Section        0  _printf_char_common.o(.text)
    _printf_input_char                       0x08000751   Thumb Code    10  _printf_char_common.o(.text)
    .text                                    0x08000780   Section        0  _sputc.o(.text)
    .text                                    0x0800078a   Section       74  sys_stackheap_outer.o(.text)
    .text                                    0x080007d4   Section        0  exit.o(.text)
    .text                                    0x080007e0   Section        8  libspace.o(.text)
    .text                                    0x080007e8   Section        0  sys_exit.o(.text)
    .text                                    0x080007f4   Section        2  use_no_semi.o(.text)
    .text                                    0x080007f6   Section        0  indicate_semi.o(.text)
    i.ADC_Cmd                                0x080007f6   Section        0  stm32f10x_adc.o(i.ADC_Cmd)
    i.ADC_Configuration                      0x0800080c   Section        0  stm32f107.o(i.ADC_Configuration)
    i.ADC_GetConversionValue                 0x08000858   Section        0  stm32f10x_adc.o(i.ADC_GetConversionValue)
    i.ADC_Init                               0x08000860   Section        0  stm32f10x_adc.o(i.ADC_Init)
    i.ADC_RegularChannelConfig               0x080008a8   Section        0  stm32f10x_adc.o(i.ADC_RegularChannelConfig)
    i.ADC_SoftwareStartConvCmd               0x0800091c   Section        0  stm32f10x_adc.o(i.ADC_SoftwareStartConvCmd)
    i.BusFault_Handler                       0x08000930   Section        0  stm32f10x_it.o(i.BusFault_Handler)
    i.DebugMon_Handler                       0x08000932   Section        0  stm32f10x_it.o(i.DebugMon_Handler)
    i.Delay                                  0x08000934   Section        0  main.o(i.Delay)
    i.Display_Periodic_Handle                0x08000948   Section        0  netconf.o(i.Display_Periodic_Handle)
    i.ETH_DMAClearITPendingBit               0x08000bf0   Section        0  stm32_eth.o(i.ETH_DMAClearITPendingBit)
    i.ETH_DMAITConfig                        0x08000bfc   Section        0  stm32_eth.o(i.ETH_DMAITConfig)
    i.ETH_DMAReceptionCmd                    0x08000c14   Section        0  stm32_eth.o(i.ETH_DMAReceptionCmd)
    i.ETH_DMARxDescChainInit                 0x08000c30   Section        0  stm32_eth.o(i.ETH_DMARxDescChainInit)
    i.ETH_DMARxDescReceiveITConfig           0x08000c7c   Section        0  stm32_eth.o(i.ETH_DMARxDescReceiveITConfig)
    i.ETH_DMATransmissionCmd                 0x08000c90   Section        0  stm32_eth.o(i.ETH_DMATransmissionCmd)
    i.ETH_DMATxDescChainInit                 0x08000cac   Section        0  stm32_eth.o(i.ETH_DMATxDescChainInit)
    i.ETH_DMATxDescChecksumInsertionConfig   0x08000cf4   Section        0  stm32_eth.o(i.ETH_DMATxDescChecksumInsertionConfig)
    i.ETH_DeInit                             0x08000cfc   Section        0  stm32_eth.o(i.ETH_DeInit)
    i.ETH_Delay                              0x08000d14   Section        0  stm32_eth.o(i.ETH_Delay)
    ETH_Delay                                0x08000d15   Thumb Code    18  stm32_eth.o(i.ETH_Delay)
    i.ETH_FlushTransmitFIFO                  0x08000d28   Section        0  stm32_eth.o(i.ETH_FlushTransmitFIFO)
    i.ETH_GetCurrentTxBuffer                 0x08000d38   Section        0  ethernetif.o(i.ETH_GetCurrentTxBuffer)
    i.ETH_GetDMARxDescFrameLength            0x08000d44   Section        0  stm32_eth.o(i.ETH_GetDMARxDescFrameLength)
    i.ETH_GetRxPktSize                       0x08000d4c   Section        0  stm32_eth.o(i.ETH_GetRxPktSize)
    i.ETH_GetSoftwareResetStatus             0x08000d70   Section        0  stm32_eth.o(i.ETH_GetSoftwareResetStatus)
    i.ETH_IRQHandler                         0x08000d84   Section        0  stm32f10x_it.o(i.ETH_IRQHandler)
    i.ETH_Init                               0x08000da8   Section        0  stm32_eth.o(i.ETH_Init)
    i.ETH_MACAddressConfig                   0x08000fb0   Section        0  stm32_eth.o(i.ETH_MACAddressConfig)
    i.ETH_MACReceptionCmd                    0x08000fcc   Section        0  stm32_eth.o(i.ETH_MACReceptionCmd)
    i.ETH_MACTransmissionCmd                 0x08000fe8   Section        0  stm32_eth.o(i.ETH_MACTransmissionCmd)
    i.ETH_ReadPHYRegister                    0x08001004   Section        0  stm32_eth.o(i.ETH_ReadPHYRegister)
    i.ETH_RxPkt_ChainMode                    0x0800105c   Section        0  ethernetif.o(i.ETH_RxPkt_ChainMode)
    i.ETH_SoftwareReset                      0x080010ac   Section        0  stm32_eth.o(i.ETH_SoftwareReset)
    i.ETH_Start                              0x080010bc   Section        0  stm32_eth.o(i.ETH_Start)
    i.ETH_StructInit                         0x080010de   Section        0  stm32_eth.o(i.ETH_StructInit)
    i.ETH_TxPkt_ChainMode                    0x0800115c   Section        0  ethernetif.o(i.ETH_TxPkt_ChainMode)
    i.ETH_WritePHYRegister                   0x08001198   Section        0  stm32_eth.o(i.ETH_WritePHYRegister)
    i.EXTI15_10_IRQHandler                   0x080011ec   Section        0  stm32f10x_it.o(i.EXTI15_10_IRQHandler)
    i.EXTI_ClearITPendingBit                 0x0800132c   Section        0  stm32f10x_exti.o(i.EXTI_ClearITPendingBit)
    i.EXTI_GetITStatus                       0x08001338   Section        0  stm32f10x_exti.o(i.EXTI_GetITStatus)
    i.EXTI_Init                              0x08001358   Section        0  stm32f10x_exti.o(i.EXTI_Init)
    i.Ethernet_Configuration                 0x080013c8   Section        0  stm32f107.o(i.Ethernet_Configuration)
    i.GPIO_Configuration                     0x0800145c   Section        0  stm32f107.o(i.GPIO_Configuration)
    i.GPIO_ETH_MediaInterfaceConfig          0x08001554   Section        0  stm32f10x_gpio.o(i.GPIO_ETH_MediaInterfaceConfig)
    i.GPIO_EXTILineConfig                    0x08001560   Section        0  stm32f10x_gpio.o(i.GPIO_EXTILineConfig)
    i.GPIO_Init                              0x08001588   Section        0  stm32f10x_gpio.o(i.GPIO_Init)
    i.GPIO_PinRemapConfig                    0x08001624   Section        0  stm32f10x_gpio.o(i.GPIO_PinRemapConfig)
    i.GPIO_ReadInputDataBit                  0x0800166c   Section        0  stm32f10x_gpio.o(i.GPIO_ReadInputDataBit)
    i.GPIO_ResetBits                         0x0800167a   Section        0  stm32f10x_gpio.o(i.GPIO_ResetBits)
    i.GPIO_SetBits                           0x0800167e   Section        0  stm32f10x_gpio.o(i.GPIO_SetBits)
    i.GPIO_WriteBit                          0x08001682   Section        0  stm32f10x_gpio.o(i.GPIO_WriteBit)
    i.HardFault_Handler                      0x0800168c   Section        0  stm32f10x_it.o(i.HardFault_Handler)
    i.HelloWorld_accept                      0x08001690   Section        0  helloworld.o(i.HelloWorld_accept)
    HelloWorld_accept                        0x08001691   Thumb Code    52  helloworld.o(i.HelloWorld_accept)
    i.HelloWorld_conn_err                    0x080016e8   Section        0  helloworld.o(i.HelloWorld_conn_err)
    HelloWorld_conn_err                      0x080016e9   Thumb Code     4  helloworld.o(i.HelloWorld_conn_err)
    i.HelloWorld_init                        0x080016ec   Section        0  helloworld.o(i.HelloWorld_init)
    i.HelloWorld_recv                        0x08001718   Section        0  helloworld.o(i.HelloWorld_recv)
    HelloWorld_recv                          0x08001719   Thumb Code   228  helloworld.o(i.HelloWorld_recv)
    i.I2C_AcknowledgeConfig                  0x08001804   Section        0  stm32f10x_i2c.o(i.I2C_AcknowledgeConfig)
    i.I2C_CheckEvent                         0x08001818   Section        0  stm32f10x_i2c.o(i.I2C_CheckEvent)
    i.I2C_Cmd                                0x08001830   Section        0  stm32f10x_i2c.o(i.I2C_Cmd)
    i.I2C_GenerateSTART                      0x08001844   Section        0  stm32f10x_i2c.o(i.I2C_GenerateSTART)
    i.I2C_GenerateSTOP                       0x08001858   Section        0  stm32f10x_i2c.o(i.I2C_GenerateSTOP)
    i.I2C_Init                               0x0800186c   Section        0  stm32f10x_i2c.o(i.I2C_Init)
    i.I2C_ReadDataBuffer                     0x08001928   Section        0  stm3210c_eval_ioe.o(i.I2C_ReadDataBuffer)
    i.I2C_ReadDeviceRegister                 0x08001a7c   Section        0  stm3210c_eval_ioe.o(i.I2C_ReadDeviceRegister)
    i.I2C_ReceiveData                        0x08001bb0   Section        0  stm32f10x_i2c.o(i.I2C_ReceiveData)
    i.I2C_Send7bitAddress                    0x08001bb6   Section        0  stm32f10x_i2c.o(i.I2C_Send7bitAddress)
    i.I2C_SendData                           0x08001bc6   Section        0  stm32f10x_i2c.o(i.I2C_SendData)
    i.I2C_SoftwareResetCmd                   0x08001bca   Section        0  stm32f10x_i2c.o(i.I2C_SoftwareResetCmd)
    i.I2C_WriteDeviceRegister                0x08001be0   Section        0  stm3210c_eval_ioe.o(i.I2C_WriteDeviceRegister)
    i.IOE_ClearGITPending                    0x08001cc4   Section        0  stm3210c_eval_ioe.o(i.IOE_ClearGITPending)
    i.IOE_Config                             0x08001cd4   Section        0  stm3210c_eval_ioe.o(i.IOE_Config)
    i.IOE_FnctCmd                            0x08001e04   Section        0  stm3210c_eval_ioe.o(i.IOE_FnctCmd)
    i.IOE_GITCmd                             0x08001e28   Section        0  stm3210c_eval_ioe.o(i.IOE_GITCmd)
    i.IOE_GITConfig                          0x08001e48   Section        0  stm3210c_eval_ioe.o(i.IOE_GITConfig)
    i.IOE_GetGITStatus                       0x08001e6c   Section        0  stm3210c_eval_ioe.o(i.IOE_GetGITStatus)
    i.IOE_I2C_Config                         0x08001e8c   Section        0  stm3210c_eval_ioe.o(i.IOE_I2C_Config)
    IOE_I2C_Config                           0x08001e8d   Thumb Code    48  stm3210c_eval_ioe.o(i.IOE_I2C_Config)
    i.IOE_IOAFConfig                         0x08001ec4   Section        0  stm3210c_eval_ioe.o(i.IOE_IOAFConfig)
    i.IOE_IOEdgeConfig                       0x08001ee8   Section        0  stm3210c_eval_ioe.o(i.IOE_IOEdgeConfig)
    i.IOE_IOITConfig                         0x08001f2e   Section        0  stm3210c_eval_ioe.o(i.IOE_IOITConfig)
    i.IOE_IOPinConfig                        0x08001f52   Section        0  stm3210c_eval_ioe.o(i.IOE_IOPinConfig)
    i.IOE_ITConfig                           0x08001f78   Section        0  stm3210c_eval_ioe.o(i.IOE_ITConfig)
    i.IOE_ITOutConfig                        0x0800207c   Section        0  stm3210c_eval_ioe.o(i.IOE_ITOutConfig)
    i.IOE_IsOperational                      0x080020b8   Section        0  stm3210c_eval_ioe.o(i.IOE_IsOperational)
    i.IOE_ReadID                             0x080020dc   Section        0  stm3210c_eval_ioe.o(i.IOE_ReadID)
    i.IOE_Reset                              0x080020fa   Section        0  stm3210c_eval_ioe.o(i.IOE_Reset)
    i.IOE_TS_Config                          0x0800211c   Section        0  stm3210c_eval_ioe.o(i.IOE_TS_Config)
    i.IOE_TS_GetState                        0x080021d8   Section        0  stm3210c_eval_ioe.o(i.IOE_TS_GetState)
    i.IOE_TempSens_Config                    0x08002288   Section        0  stm3210c_eval_ioe.o(i.IOE_TempSens_Config)
    i.IOE_WriteIOPin                         0x080022cc   Section        0  stm3210c_eval_ioe.o(i.IOE_WriteIOPin)
    i.LCD_Clear                              0x080022f8   Section        0  stm3210c_eval_lcd.o(i.LCD_Clear)
    i.LCD_CtrlLinesConfig                    0x08002330   Section        0  stm3210c_eval_lcd.o(i.LCD_CtrlLinesConfig)
    i.LCD_CtrlLinesWrite                     0x0800235c   Section        0  stm3210c_eval_lcd.o(i.LCD_CtrlLinesWrite)
    i.LCD_DisplayChar                        0x08002360   Section        0  stm3210c_eval_lcd.o(i.LCD_DisplayChar)
    i.LCD_DisplayStringLine                  0x08002378   Section        0  stm3210c_eval_lcd.o(i.LCD_DisplayStringLine)
    i.LCD_DrawChar                           0x080023a8   Section        0  stm3210c_eval_lcd.o(i.LCD_DrawChar)
    i.LCD_DrawLine                           0x0800240c   Section        0  stm3210c_eval_lcd.o(i.LCD_DrawLine)
    i.LCD_DrawRect                           0x0800246c   Section        0  stm3210c_eval_lcd.o(i.LCD_DrawRect)
    i.LCD_SPIConfig                          0x080024b0   Section        0  stm3210c_eval_lcd.o(i.LCD_SPIConfig)
    i.LCD_SetBackColor                       0x0800253c   Section        0  stm3210c_eval_lcd.o(i.LCD_SetBackColor)
    i.LCD_SetCursor                          0x0800254c   Section        0  stm3210c_eval_lcd.o(i.LCD_SetCursor)
    i.LCD_SetTextColor                       0x08002564   Section        0  stm3210c_eval_lcd.o(i.LCD_SetTextColor)
    i.LCD_Setup                              0x08002574   Section        0  stm3210c_eval_lcd.o(i.LCD_Setup)
    i.LCD_WriteRAM                           0x0800277c   Section        0  stm3210c_eval_lcd.o(i.LCD_WriteRAM)
    i.LCD_WriteRAMWord                       0x080027b0   Section        0  stm3210c_eval_lcd.o(i.LCD_WriteRAMWord)
    i.LCD_WriteRAM_Prepare                   0x080027d0   Section        0  stm3210c_eval_lcd.o(i.LCD_WriteRAM_Prepare)
    i.LCD_WriteReg                           0x080027e4   Section        0  stm3210c_eval_lcd.o(i.LCD_WriteReg)
    i.LCD_WriteRegIndex                      0x08002834   Section        0  stm3210c_eval_lcd.o(i.LCD_WriteRegIndex)
    i.LCD_nCS_StartByte                      0x08002880   Section        0  stm3210c_eval_lcd.o(i.LCD_nCS_StartByte)
    i.LwIP_Init                              0x080028b0   Section        0  netconf.o(i.LwIP_Init)
    i.LwIP_Periodic_Handle                   0x08002a0c   Section        0  netconf.o(i.LwIP_Periodic_Handle)
    i.LwIP_Pkt_Handle                        0x08002a6c   Section        0  netconf.o(i.LwIP_Pkt_Handle)
    i.MemManage_Handler                      0x08002a78   Section        0  stm32f10x_it.o(i.MemManage_Handler)
    i.NMI_Handler                            0x08002a7a   Section        0  stm32f10x_it.o(i.NMI_Handler)
    i.NVIC_Configuration                     0x08002a7c   Section        0  stm32f107.o(i.NVIC_Configuration)
    i.NVIC_Init                              0x08002ab0   Section        0  misc.o(i.NVIC_Init)
    i.NVIC_PriorityGroupConfig               0x08002b14   Section        0  misc.o(i.NVIC_PriorityGroupConfig)
    i.NVIC_SetPriority                       0x08002b28   Section        0  stm32f107.o(i.NVIC_SetPriority)
    NVIC_SetPriority                         0x08002b29   Thumb Code    32  stm32f107.o(i.NVIC_SetPriority)
    i.NVIC_SetVectorTable                    0x08002b48   Section        0  misc.o(i.NVIC_SetVectorTable)
    i.PendSV_Handler                         0x08002b5c   Section        0  stm32f10x_it.o(i.PendSV_Handler)
    i.RCC_AHBPeriphClockCmd                  0x08002b60   Section        0  stm32f10x_rcc.o(i.RCC_AHBPeriphClockCmd)
    i.RCC_AHBPeriphResetCmd                  0x08002b78   Section        0  stm32f10x_rcc.o(i.RCC_AHBPeriphResetCmd)
    i.RCC_APB1PeriphClockCmd                 0x08002b90   Section        0  stm32f10x_rcc.o(i.RCC_APB1PeriphClockCmd)
    i.RCC_APB1PeriphResetCmd                 0x08002ba8   Section        0  stm32f10x_rcc.o(i.RCC_APB1PeriphResetCmd)
    i.RCC_APB2PeriphClockCmd                 0x08002bc0   Section        0  stm32f10x_rcc.o(i.RCC_APB2PeriphClockCmd)
    i.RCC_APB2PeriphResetCmd                 0x08002bd8   Section        0  stm32f10x_rcc.o(i.RCC_APB2PeriphResetCmd)
    i.RCC_GetClocksFreq                      0x08002bf0   Section        0  stm32f10x_rcc.o(i.RCC_GetClocksFreq)
    i.RCC_GetFlagStatus                      0x08002cb8   Section        0  stm32f10x_rcc.o(i.RCC_GetFlagStatus)
    i.RCC_MCOConfig                          0x08002ce8   Section        0  stm32f10x_rcc.o(i.RCC_MCOConfig)
    i.RCC_PLL3Cmd                            0x08002cf4   Section        0  stm32f10x_rcc.o(i.RCC_PLL3Cmd)
    i.RCC_PLL3Config                         0x08002d00   Section        0  stm32f10x_rcc.o(i.RCC_PLL3Config)
    i.SPI_Cmd                                0x08002d14   Section        0  stm32f10x_spi.o(i.SPI_Cmd)
    i.SPI_Config                             0x08002d28   Section        0  sd_stm32.o(i.SPI_Config)
    SPI_Config                               0x08002d29   Thumb Code   148  sd_stm32.o(i.SPI_Config)
    i.SPI_I2S_DeInit                         0x08002dcc   Section        0  stm32f10x_spi.o(i.SPI_I2S_DeInit)
    i.SPI_I2S_GetFlagStatus                  0x08002e20   Section        0  stm32f10x_spi.o(i.SPI_I2S_GetFlagStatus)
    i.SPI_I2S_ReceiveData                    0x08002e2e   Section        0  stm32f10x_spi.o(i.SPI_I2S_ReceiveData)
    i.SPI_I2S_SendData                       0x08002e32   Section        0  stm32f10x_spi.o(i.SPI_I2S_SendData)
    i.SPI_Init                               0x08002e36   Section        0  stm32f10x_spi.o(i.SPI_Init)
    i.STM3210C_LCD_Init                      0x08002e6e   Section        0  stm3210c_eval_lcd.o(i.STM3210C_LCD_Init)
    i.STM_EVAL_LEDInit                       0x08002e74   Section        0  stm32_eval.o(i.STM_EVAL_LEDInit)
    i.STM_EVAL_LEDOff                        0x08002eb4   Section        0  stm32_eval.o(i.STM_EVAL_LEDOff)
    i.STM_EVAL_LEDOn                         0x08002ecc   Section        0  stm32_eval.o(i.STM_EVAL_LEDOn)
    i.STM_EVAL_LEDToggle                     0x08002ee4   Section        0  stm32_eval.o(i.STM_EVAL_LEDToggle)
    i.STM_EVAL_PBGetState                    0x08002f00   Section        0  stm32_eval.o(i.STM_EVAL_PBGetState)
    i.STM_EVAL_PBInit                        0x08002f18   Section        0  stm32_eval.o(i.STM_EVAL_PBInit)
    i.SVC_Handler                            0x08002fb4   Section        0  stm32f10x_it.o(i.SVC_Handler)
    i.SetSysClockTo72                        0x08002fb8   Section        0  system_stm32f10x.o(i.SetSysClockTo72)
    SetSysClockTo72                          0x08002fb9   Thumb Code   190  system_stm32f10x.o(i.SetSysClockTo72)
    i.Set_MAC_Address                        0x08003088   Section        0  ethernetif.o(i.Set_MAC_Address)
    i.SysTick_Handler                        0x080030b0   Section        0  stm32f10x_it.o(i.SysTick_Handler)
    i.SystemInit                             0x080030b4   Section        0  system_stm32f10x.o(i.SystemInit)
    i.System_Periodic_Handle                 0x08003100   Section        0  main.o(i.System_Periodic_Handle)
    i.System_Setup                           0x08003118   Section        0  stm32f107.o(i.System_Setup)
    i.Time_Update                            0x0800325c   Section        0  main.o(i.Time_Update)
    i.UsageFault_Handler                     0x0800326c   Section        0  stm32f10x_it.o(i.UsageFault_Handler)
    i.client_init                            0x08003270   Section        0  client.o(i.client_init)
    i.close_conn                             0x080032c4   Section        0  httpd.o(i.close_conn)
    close_conn                               0x080032c5   Thumb Code    44  httpd.o(i.close_conn)
    i.conn_err                               0x080032f0   Section        0  httpd.o(i.conn_err)
    conn_err                                 0x080032f1   Thumb Code     4  httpd.o(i.conn_err)
    i.delay                                  0x080032f4   Section        0  stm3210c_eval_ioe.o(i.delay)
    delay                                    0x080032f5   Thumb Code    22  stm3210c_eval_ioe.o(i.delay)
    i.delay                                  0x08003310   Section        0  stm3210c_eval_lcd.o(i.delay)
    delay                                    0x08003311   Thumb Code    22  stm3210c_eval_lcd.o(i.delay)
    i.dhcp_arp_reply                         0x0800332c   Section        0  dhcp.o(i.dhcp_arp_reply)
    i.dhcp_bind                              0x0800334c   Section        0  dhcp.o(i.dhcp_bind)
    dhcp_bind                                0x0800334d   Thumb Code   210  dhcp.o(i.dhcp_bind)
    i.dhcp_check                             0x08003424   Section        0  dhcp.o(i.dhcp_check)
    dhcp_check                               0x08003425   Thumb Code    48  dhcp.o(i.dhcp_check)
    i.dhcp_coarse_tmr                        0x08003454   Section        0  dhcp.o(i.dhcp_coarse_tmr)
    i.dhcp_create_request                    0x080034b4   Section        0  dhcp.o(i.dhcp_create_request)
    dhcp_create_request                      0x080034b5   Thumb Code   248  dhcp.o(i.dhcp_create_request)
    i.dhcp_decline                           0x080035b4   Section        0  dhcp.o(i.dhcp_decline)
    dhcp_decline                             0x080035b5   Thumb Code   138  dhcp.o(i.dhcp_decline)
    i.dhcp_delete_request                    0x08003648   Section        0  dhcp.o(i.dhcp_delete_request)
    dhcp_delete_request                      0x08003649   Thumb Code    28  dhcp.o(i.dhcp_delete_request)
    i.dhcp_discover                          0x08003664   Section        0  dhcp.o(i.dhcp_discover)
    dhcp_discover                            0x08003665   Thumb Code   210  dhcp.o(i.dhcp_discover)
    i.dhcp_fine_tmr                          0x08003740   Section        0  dhcp.o(i.dhcp_fine_tmr)
    i.dhcp_free_reply                        0x08003774   Section        0  dhcp.o(i.dhcp_free_reply)
    dhcp_free_reply                          0x08003775   Thumb Code    32  dhcp.o(i.dhcp_free_reply)
    i.dhcp_get_option_long                   0x08003794   Section        0  dhcp.o(i.dhcp_get_option_long)
    dhcp_get_option_long                     0x08003795   Thumb Code    22  dhcp.o(i.dhcp_get_option_long)
    i.dhcp_get_option_ptr                    0x080037aa   Section        0  dhcp.o(i.dhcp_get_option_ptr)
    dhcp_get_option_ptr                      0x080037ab   Thumb Code   126  dhcp.o(i.dhcp_get_option_ptr)
    i.dhcp_handle_ack                        0x08003828   Section        0  dhcp.o(i.dhcp_handle_ack)
    dhcp_handle_ack                          0x08003829   Thumb Code   220  dhcp.o(i.dhcp_handle_ack)
    i.dhcp_option                            0x08003904   Section        0  dhcp.o(i.dhcp_option)
    dhcp_option                              0x08003905   Thumb Code    32  dhcp.o(i.dhcp_option)
    i.dhcp_option_byte                       0x08003924   Section        0  dhcp.o(i.dhcp_option_byte)
    dhcp_option_byte                         0x08003925   Thumb Code    16  dhcp.o(i.dhcp_option_byte)
    i.dhcp_option_long                       0x08003934   Section        0  dhcp.o(i.dhcp_option_long)
    dhcp_option_long                         0x08003935   Thumb Code    66  dhcp.o(i.dhcp_option_long)
    i.dhcp_option_short                      0x08003976   Section        0  dhcp.o(i.dhcp_option_short)
    dhcp_option_short                        0x08003977   Thumb Code    34  dhcp.o(i.dhcp_option_short)
    i.dhcp_option_trailer                    0x08003998   Section        0  dhcp.o(i.dhcp_option_trailer)
    dhcp_option_trailer                      0x08003999   Thumb Code    48  dhcp.o(i.dhcp_option_trailer)
    i.dhcp_rebind                            0x080039c8   Section        0  dhcp.o(i.dhcp_rebind)
    dhcp_rebind                              0x080039c9   Thumb Code   152  dhcp.o(i.dhcp_rebind)
    i.dhcp_recv                              0x08003a68   Section        0  dhcp.o(i.dhcp_recv)
    dhcp_recv                                0x08003a69   Thumb Code   290  dhcp.o(i.dhcp_recv)
    i.dhcp_release                           0x08003b90   Section        0  dhcp.o(i.dhcp_release)
    i.dhcp_renew                             0x08003c50   Section        0  dhcp.o(i.dhcp_renew)
    i.dhcp_select                            0x08003cec   Section        0  dhcp.o(i.dhcp_select)
    dhcp_select                              0x08003ced   Thumb Code   252  dhcp.o(i.dhcp_select)
    i.dhcp_set_state                         0x08003df0   Section        0  dhcp.o(i.dhcp_set_state)
    dhcp_set_state                           0x08003df1   Thumb Code    14  dhcp.o(i.dhcp_set_state)
    i.dhcp_start                             0x08003e00   Section        0  dhcp.o(i.dhcp_start)
    i.dhcp_stop                              0x08003ea4   Section        0  dhcp.o(i.dhcp_stop)
    i.dhcp_timeout                           0x08003ee2   Section        0  dhcp.o(i.dhcp_timeout)
    dhcp_timeout                             0x08003ee3   Thumb Code   116  dhcp.o(i.dhcp_timeout)
    i.dhcp_unfold_reply                      0x08003f56   Section        0  dhcp.o(i.dhcp_unfold_reply)
    dhcp_unfold_reply                        0x08003f57   Thumb Code   112  dhcp.o(i.dhcp_unfold_reply)
    i.dir_addCluster                         0x08003fc6   Section        0  dir.o(i.dir_addCluster)
    i.dir_createDefaultEntry                 0x0800402c   Section        0  dir.o(i.dir_createDefaultEntry)
    i.dir_createDirectoryEntry               0x08004052   Section        0  dir.o(i.dir_createDirectoryEntry)
    i.dir_findFileinBuf                      0x08004082   Section        0  dir.o(i.dir_findFileinBuf)
    i.dir_findFreeEntryinBuf                 0x080040da   Section        0  dir.o(i.dir_findFreeEntryinBuf)
    i.dir_findinBuf                          0x0800411a   Section        0  dir.o(i.dir_findinBuf)
    i.dir_findinCluster                      0x0800412e   Section        0  dir.o(i.dir_findinCluster)
    i.dir_findinDir                          0x08004198   Section        0  dir.o(i.dir_findinDir)
    i.dir_findinRootArea                     0x080041ee   Section        0  dir.o(i.dir_findinRootArea)
    i.dir_getFatFileName                     0x0800425c   Section        0  dir.o(i.dir_getFatFileName)
    i.dir_getFileStructure                   0x080042a2   Section        0  dir.o(i.dir_getFileStructure)
    i.dir_setFileSize                        0x080042d2   Section        0  dir.o(i.dir_setFileSize)
    i.dir_setFirstCluster                    0x080042f8   Section        0  dir.o(i.dir_setFirstCluster)
    i.dir_updateDirectoryEntry               0x08004328   Section        0  dir.o(i.dir_updateDirectoryEntry)
    i.disc_initDisc                          0x0800435a   Section        0  disc.o(i.disc_initDisc)
    i.disc_loadMBR                           0x08004364   Section        0  disc.o(i.disc_loadMBR)
    i.efs_init                               0x080043a0   Section        0  efs.o(i.efs_init)
    i.etharp_arp_input                       0x08004408   Section        0  etharp.o(i.etharp_arp_input)
    i.etharp_ip_input                        0x080044e2   Section        0  etharp.o(i.etharp_ip_input)
    i.etharp_output                          0x0800450c   Section        0  etharp.o(i.etharp_output)
    i.etharp_query                           0x080045c4   Section        0  etharp.o(i.etharp_query)
    i.etharp_raw                             0x080046c8   Section        0  etharp.o(i.etharp_raw)
    etharp_raw                               0x080046c9   Thumb Code   158  etharp.o(i.etharp_raw)
    i.etharp_request                         0x08004768   Section        0  etharp.o(i.etharp_request)
    i.etharp_send_ip                         0x0800478c   Section        0  etharp.o(i.etharp_send_ip)
    etharp_send_ip                           0x0800478d   Thumb Code    54  etharp.o(i.etharp_send_ip)
    i.etharp_tmr                             0x080047c4   Section        0  etharp.o(i.etharp_tmr)
    i.ethernet_input                         0x08004818   Section        0  etharp.o(i.ethernet_input)
    i.ethernetif_init                        0x0800486c   Section        0  ethernetif.o(i.ethernetif_init)
    i.ethernetif_input                       0x080048ac   Section        0  ethernetif.o(i.ethernetif_input)
    i.ex_getPartitionField                   0x08004924   Section        0  extract.o(i.ex_getPartitionField)
    i.ex_getb16                              0x08004960   Section        0  extract.o(i.ex_getb16)
    i.ex_getb32                              0x0800496e   Section        0  extract.o(i.ex_getb32)
    i.fat_DiscToLogicCluster                 0x08004986   Section        0  fat.o(i.fat_DiscToLogicCluster)
    i.fat_LogicToDiscCluster                 0x080049be   Section        0  fat.o(i.fat_LogicToDiscCluster)
    i.fat_allocClusterChain                  0x08004a10   Section        0  fat.o(i.fat_allocClusterChain)
    i.fat_countClustersInChain               0x08004b2e   Section        0  fat.o(i.fat_countClustersInChain)
    i.fat_getNextClusterAddress              0x08004b5e   Section        0  fat.o(i.fat_getNextClusterAddress)
    i.fat_getNextClusterAddressWBuf          0x08004bfa   Section        0  fat.o(i.fat_getNextClusterAddressWBuf)
    i.fat_getNextClusterChain                0x08004c72   Section        0  fat.o(i.fat_getNextClusterChain)
    i.fat_getSectorAddressFatEntry           0x08004d0a   Section        0  fat.o(i.fat_getSectorAddressFatEntry)
    i.fat_giveEocMarker                      0x08004d3a   Section        0  fat.o(i.fat_giveEocMarker)
    i.fat_isEocMarker                        0x08004d60   Section        0  fat.o(i.fat_isEocMarker)
    i.fat_setNextClusterAddress              0x08004d98   Section        0  fat.o(i.fat_setNextClusterAddress)
    i.fat_setNextClusterAddressWBuf          0x08004e76   Section        0  fat.o(i.fat_setNextClusterAddressWBuf)
    i.file_fclose                            0x08004f26   Section        0  file.o(i.file_fclose)
    i.file_fopen                             0x08004f8c   Section        0  file.o(i.file_fopen)
    i.file_fread                             0x0800512a   Section        0  file.o(i.file_fread)
    i.file_fwrite                            0x080051f6   Section        0  file.o(i.file_fwrite)
    i.file_getAttr                           0x08005300   Section        0  file.o(i.file_getAttr)
    i.file_initFile                          0x0800530c   Section        0  file.o(i.file_initFile)
    i.file_normalToFatName                   0x08005338   Section        0  file.o(i.file_normalToFatName)
    i.file_read                              0x080053be   Section        0  file.o(i.file_read)
    i.file_requiredCluster                   0x080053d6   Section        0  file.o(i.file_requiredCluster)
    i.file_setAttr                           0x0800542a   Section        0  file.o(i.file_setAttr)
    i.file_setpos                            0x08005440   Section        0  file.o(i.file_setpos)
    i.file_validateChar                      0x08005452   Section        0  file.o(i.file_validateChar)
    i.file_write                             0x08005490   Section        0  file.o(i.file_write)
    i.find_entry                             0x080054a8   Section        0  etharp.o(i.find_entry)
    find_entry                               0x080054a9   Thumb Code   308  etharp.o(i.find_entry)
    i.free_etharp_q                          0x080055e4   Section        0  etharp.o(i.free_etharp_q)
    free_etharp_q                            0x080055e5   Thumb Code    30  etharp.o(i.free_etharp_q)
    i.fs_clearCluster                        0x08005602   Section        0  fs.o(i.fs_clearCluster)
    i.fs_clusterToSector                     0x08005644   Section        0  fs.o(i.fs_clusterToSector)
    i.fs_countDataSectors                    0x08005668   Section        0  fs.o(i.fs_countDataSectors)
    i.fs_determineFatType                    0x080056b4   Section        0  fs.o(i.fs_determineFatType)
    i.fs_findFile                            0x080056de   Section        0  fs.o(i.fs_findFile)
    i.fs_findFirstSectorRootDir              0x08005794   Section        0  fs.o(i.fs_findFirstSectorRootDir)
    i.fs_findFreeFile                        0x080057b8   Section        0  fs.o(i.fs_findFreeFile)
    i.fs_flushFs                             0x08005814   Section        0  fs.o(i.fs_flushFs)
    i.fs_getFirstClusterRootDir              0x0800581e   Section        0  fs.o(i.fs_getFirstClusterRootDir)
    i.fs_getLastCluster                      0x0800582e   Section        0  fs.o(i.fs_getLastCluster)
    i.fs_getNextFreeCluster                  0x08005866   Section        0  fs.o(i.fs_getNextFreeCluster)
    i.fs_giveFreeClusterHint                 0x0800588a   Section        0  fs.o(i.fs_giveFreeClusterHint)
    i.fs_hasTimeSupport                      0x0800588e   Section        0  time.o(i.fs_hasTimeSupport)
    i.fs_initClusterChain                    0x08005892   Section        0  fs.o(i.fs_initClusterChain)
    i.fs_initCurrentDir                      0x080058a2   Section        0  fs.o(i.fs_initCurrentDir)
    i.fs_initFs                              0x080058ae   Section        0  fs.o(i.fs_initFs)
    i.fs_isValidFat                          0x080058f6   Section        0  fs.o(i.fs_isValidFat)
    i.fs_loadVolumeId                        0x08005924   Section        0  fs.o(i.fs_loadVolumeId)
    i.fs_open                                0x08005998   Section        0  httpd.o(i.fs_open)
    i.fs_setFirstClusterInDirEntry           0x080059c8   Section        0  fs.o(i.fs_setFirstClusterInDirEntry)
    i.fs_umount                              0x080059d0   Section        0  fs.o(i.fs_umount)
    i.fs_verifySanity                        0x080059d4   Section        0  fs.o(i.fs_verifySanity)
    i.htonl                                  0x08005a68   Section        0  inet.o(i.htonl)
    i.htons                                  0x08005a6c   Section        0  inet.o(i.htons)
    i.http_accept                            0x08005a70   Section        0  httpd.o(i.http_accept)
    http_accept                              0x08005a71   Thumb Code    62  httpd.o(i.http_accept)
    i.http_poll                              0x08005abc   Section        0  httpd.o(i.http_poll)
    http_poll                                0x08005abd   Thumb Code    26  httpd.o(i.http_poll)
    i.http_recv                              0x08005ad8   Section        0  httpd.o(i.http_recv)
    http_recv                                0x08005ad9   Thumb Code   432  httpd.o(i.http_recv)
    i.http_sent                              0x08005cf8   Section        0  httpd.o(i.http_sent)
    http_sent                                0x08005cf9   Thumb Code    28  httpd.o(i.http_sent)
    i.httpd_init                             0x08005d14   Section        0  httpd.o(i.httpd_init)
    i.icmp_dest_unreach                      0x08005d40   Section        0  icmp.o(i.icmp_dest_unreach)
    i.icmp_input                             0x08005d48   Section        0  icmp.o(i.icmp_input)
    i.icmp_send_response                     0x08005e5c   Section        0  icmp.o(i.icmp_send_response)
    icmp_send_response                       0x08005e5d   Thumb Code   102  icmp.o(i.icmp_send_response)
    i.icmp_time_exceeded                     0x08005ec2   Section        0  icmp.o(i.icmp_time_exceeded)
    i.if_initInterface                       0x08005eca   Section        0  sd_stm32.o(i.if_initInterface)
    i.if_readBuf                             0x08005f0c   Section        0  sd_stm32.o(i.if_readBuf)
    i.if_spiInit                             0x08005f14   Section        0  sd_stm32.o(i.if_spiInit)
    i.if_spiSend                             0x08005f54   Section        0  sd_stm32.o(i.if_spiSend)
    i.if_writeBuf                            0x08005f94   Section        0  sd_stm32.o(i.if_writeBuf)
    i.inet_chksum                            0x08005f98   Section        0  inet_chksum.o(i.inet_chksum)
    i.inet_chksum_pbuf                       0x08005fa4   Section        0  inet_chksum.o(i.inet_chksum_pbuf)
    i.ioman_decUseCnt                        0x08005fec   Section        0  ioman.o(i.ioman_decUseCnt)
    i.ioman_directSectorRead                 0x08006006   Section        0  ioman.o(i.ioman_directSectorRead)
    i.ioman_directSectorWrite                0x08006066   Section        0  ioman.o(i.ioman_directSectorWrite)
    i.ioman_findFreeSpot                     0x080060f6   Section        0  ioman.o(i.ioman_findFreeSpot)
    i.ioman_findOverallocableSpot            0x0800611e   Section        0  ioman.o(i.ioman_findOverallocableSpot)
    i.ioman_findSectorInCache                0x0800618e   Section        0  ioman.o(i.ioman_findSectorInCache)
    i.ioman_findUnusedSpot                   0x080061c2   Section        0  ioman.o(i.ioman_findUnusedSpot)
    i.ioman_flushRange                       0x0800623e   Section        0  ioman.o(i.ioman_flushRange)
    i.ioman_flushSector                      0x0800629e   Section        0  ioman.o(i.ioman_flushSector)
    i.ioman_getAttr                          0x080062f8   Section        0  ioman.o(i.ioman_getAttr)
    i.ioman_getBp                            0x08006312   Section        0  ioman.o(i.ioman_getBp)
    i.ioman_getPtr                           0x0800633a   Section        0  ioman.o(i.ioman_getPtr)
    i.ioman_getRefCnt                        0x08006350   Section        0  ioman.o(i.ioman_getRefCnt)
    i.ioman_getSector                        0x08006364   Section        0  ioman.o(i.ioman_getSector)
    i.ioman_getUseCnt                        0x0800643c   Section        0  ioman.o(i.ioman_getUseCnt)
    i.ioman_incRefCnt                        0x08006450   Section        0  ioman.o(i.ioman_incRefCnt)
    i.ioman_incUseCnt                        0x0800646a   Section        0  ioman.o(i.ioman_incUseCnt)
    i.ioman_init                             0x08006484   Section        0  ioman.o(i.ioman_init)
    i.ioman_pop                              0x0800649c   Section        0  ioman.o(i.ioman_pop)
    i.ioman_push                             0x080064e2   Section        0  ioman.o(i.ioman_push)
    i.ioman_putSectorInCache                 0x08006528   Section        0  ioman.o(i.ioman_putSectorInCache)
    i.ioman_readSector                       0x0800656e   Section        0  ioman.o(i.ioman_readSector)
    i.ioman_releaseSector                    0x0800658a   Section        0  ioman.o(i.ioman_releaseSector)
    i.ioman_reset                            0x080065da   Section        0  ioman.o(i.ioman_reset)
    i.ioman_resetCacheItem                   0x08006638   Section        0  ioman.o(i.ioman_resetCacheItem)
    i.ioman_setAttr                          0x08006656   Section        0  ioman.o(i.ioman_setAttr)
    i.ioman_writeSector                      0x08006678   Section        0  ioman.o(i.ioman_writeSector)
    i.ip_addr_isbroadcast                    0x08006698   Section        0  ip_addr.o(i.ip_addr_isbroadcast)
    i.ip_frag                                0x080066c8   Section        0  ip_frag.o(i.ip_frag)
    i.ip_input                               0x080067f8   Section        0  ip.o(i.ip_input)
    i.ip_output                              0x0800698c   Section        0  ip.o(i.ip_output)
    i.ip_output_if                           0x080069c0   Section        0  ip.o(i.ip_output_if)
    i.ip_reass                               0x08006a8c   Section        0  ip_frag.o(i.ip_reass)
    i.ip_reass_chain_frag_into_datagram_and_validate 0x08006c3c   Section        0  ip_frag.o(i.ip_reass_chain_frag_into_datagram_and_validate)
    ip_reass_chain_frag_into_datagram_and_validate 0x08006c3d   Thumb Code   234  ip_frag.o(i.ip_reass_chain_frag_into_datagram_and_validate)
    i.ip_reass_dequeue_datagram              0x08006d2c   Section        0  ip_frag.o(i.ip_reass_dequeue_datagram)
    ip_reass_dequeue_datagram                0x08006d2d   Thumb Code    30  ip_frag.o(i.ip_reass_dequeue_datagram)
    i.ip_reass_free_complete_datagram        0x08006d50   Section        0  ip_frag.o(i.ip_reass_free_complete_datagram)
    ip_reass_free_complete_datagram          0x08006d51   Thumb Code   106  ip_frag.o(i.ip_reass_free_complete_datagram)
    i.ip_reass_remove_oldest_datagram        0x08006dc0   Section        0  ip_frag.o(i.ip_reass_remove_oldest_datagram)
    ip_reass_remove_oldest_datagram          0x08006dc1   Thumb Code   110  ip_frag.o(i.ip_reass_remove_oldest_datagram)
    i.ip_route                               0x08006e34   Section        0  ip.o(i.ip_route)
    i.low_level_init                         0x08006e7c   Section        0  ethernetif.o(i.low_level_init)
    low_level_init                           0x08006e7d   Thumb Code   124  ethernetif.o(i.low_level_init)
    i.low_level_output                       0x08006f04   Section        0  ethernetif.o(i.low_level_output)
    low_level_output                         0x08006f05   Thumb Code    44  ethernetif.o(i.low_level_output)
    i.ls_openDir                             0x08006f30   Section        0  ls.o(i.ls_openDir)
    i.lwip_standard_chksum                   0x08006f72   Section        0  inet_chksum.o(i.lwip_standard_chksum)
    lwip_standard_chksum                     0x08006f73   Thumb Code    60  inet_chksum.o(i.lwip_standard_chksum)
    i.main                                   0x08006fae   Section        0  main.o(i.main)
    i.memClr                                 0x08006fc8   Section        0  plibc.o(i.memClr)
    i.memCpy                                 0x08006fda   Section        0  plibc.o(i.memCpy)
    i.mem_calloc                             0x08006ff2   Section        0  mem.o(i.mem_calloc)
    i.mem_free                               0x0800700c   Section        0  mem.o(i.mem_free)
    i.mem_init                               0x08007038   Section        0  mem.o(i.mem_init)
    i.mem_malloc                             0x0800706c   Section        0  mem.o(i.mem_malloc)
    i.mem_realloc                            0x08007114   Section        0  mem.o(i.mem_realloc)
    i.memp_free                              0x080071d8   Section        0  memp.o(i.memp_free)
    i.memp_init                              0x080071f0   Section        0  memp.o(i.memp_init)
    i.memp_malloc                            0x08007248   Section        0  memp.o(i.memp_malloc)
    i.netif_add                              0x08007268   Section        0  netif.o(i.netif_add)
    i.netif_is_up                            0x080072b4   Section        0  netif.o(i.netif_is_up)
    i.netif_set_addr                         0x080072be   Section        0  netif.o(i.netif_set_addr)
    i.netif_set_default                      0x080072e0   Section        0  netif.o(i.netif_set_default)
    i.netif_set_down                         0x080072ec   Section        0  netif.o(i.netif_set_down)
    i.netif_set_gw                           0x080072fe   Section        0  netif.o(i.netif_set_gw)
    i.netif_set_ipaddr                       0x08007308   Section        0  netif.o(i.netif_set_ipaddr)
    i.netif_set_netmask                      0x08007370   Section        0  netif.o(i.netif_set_netmask)
    i.netif_set_up                           0x08007378   Section        0  netif.o(i.netif_set_up)
    i.ntohl                                  0x08007394   Section        0  inet.o(i.ntohl)
    i.ntohs                                  0x08007398   Section        0  inet.o(i.ntohs)
    i.part_directSectorRead                  0x0800739c   Section        0  partition.o(i.part_directSectorRead)
    i.part_directSectorWrite                 0x080073b6   Section        0  partition.o(i.part_directSectorWrite)
    i.part_flushPart                         0x080073d0   Section        0  partition.o(i.part_flushPart)
    i.part_getRealLBA                        0x080073f6   Section        0  partition.o(i.part_getRealLBA)
    i.part_getSect                           0x08007408   Section        0  partition.o(i.part_getSect)
    i.part_initPartition                     0x08007422   Section        0  partition.o(i.part_initPartition)
    i.part_isFatPart                         0x0800744a   Section        0  partition.o(i.part_isFatPart)
    i.part_relSect                           0x0800746a   Section        0  partition.o(i.part_relSect)
    i.pbuf_alloc                             0x08007472   Section        0  pbuf.o(i.pbuf_alloc)
    i.pbuf_cat                               0x0800757e   Section        0  pbuf.o(i.pbuf_cat)
    i.pbuf_chain                             0x080075a6   Section        0  pbuf.o(i.pbuf_chain)
    i.pbuf_clen                              0x080075b8   Section        0  pbuf.o(i.pbuf_clen)
    i.pbuf_copy                              0x080075ca   Section        0  pbuf.o(i.pbuf_copy)
    i.pbuf_copy_partial                      0x0800765a   Section        0  pbuf.o(i.pbuf_copy_partial)
    i.pbuf_free                              0x080076c2   Section        0  pbuf.o(i.pbuf_free)
    i.pbuf_header                            0x08007706   Section        0  pbuf.o(i.pbuf_header)
    i.pbuf_realloc                           0x08007766   Section        0  pbuf.o(i.pbuf_realloc)
    i.pbuf_ref                               0x080077b4   Section        0  pbuf.o(i.pbuf_ref)
    i.plug_holes                             0x080077c0   Section        0  mem.o(i.plug_holes)
    plug_holes                               0x080077c1   Thumb Code    78  mem.o(i.plug_holes)
    i.process_tftp_request                   0x08007814   Section        0  tftpserver.o(i.process_tftp_request)
    i.raw_input                              0x080078d8   Section        0  raw.o(i.raw_input)
    i.recv_callback_tftp                     0x08007940   Section        0  tftpserver.o(i.recv_callback_tftp)
    i.rrq_recv_callback                      0x08007958   Section        0  tftpserver.o(i.rrq_recv_callback)
    i.sd_Command                             0x080079ac   Section        0  sd.o(i.sd_Command)
    i.sd_Init                                0x080079fc   Section        0  sd.o(i.sd_Init)
    i.sd_Resp16b                             0x08007a5e   Section        0  sd.o(i.sd_Resp16b)
    i.sd_Resp8b                              0x08007a74   Section        0  sd.o(i.sd_Resp8b)
    i.sd_State                               0x08007a90   Section        0  sd.o(i.sd_State)
    i.sd_getDriveSize                        0x08007ab8   Section        0  sd.o(i.sd_getDriveSize)
    i.sd_readSector                          0x08007b4e   Section        0  sd.o(i.sd_readSector)
    i.sd_writeSector                         0x08007bbe   Section        0  sd.o(i.sd_writeSector)
    i.send_data                              0x08007c22   Section        0  httpd.o(i.send_data)
    send_data                                0x08007c23   Thumb Code    44  httpd.o(i.send_data)
    i.server_init                            0x08007c50   Section        0  server.o(i.server_init)
    i.strMatch                               0x08007c78   Section        0  plibc.o(i.strMatch)
    i.tcp_abandon                            0x08007c98   Section        0  tcp.o(i.tcp_abandon)
    i.tcp_accept                             0x08007d2c   Section        0  tcp.o(i.tcp_accept)
    i.tcp_accept_null                        0x08007d30   Section        0  tcp.o(i.tcp_accept_null)
    tcp_accept_null                          0x08007d31   Thumb Code     6  tcp.o(i.tcp_accept_null)
    i.tcp_alloc                              0x08007d38   Section        0  tcp.o(i.tcp_alloc)
    i.tcp_arg                                0x08007e3c   Section        0  tcp.o(i.tcp_arg)
    i.tcp_bind                               0x08007e40   Section        0  tcp.o(i.tcp_bind)
    i.tcp_client_connected                   0x08007efc   Section        0  client.o(i.tcp_client_connected)
    i.tcp_close                              0x08007f7c   Section        0  tcp.o(i.tcp_close)
    i.tcp_connect                            0x0800801c   Section        0  tcp.o(i.tcp_connect)
    i.tcp_eff_send_mss                       0x080080e0   Section        0  tcp.o(i.tcp_eff_send_mss)
    i.tcp_enqueue                            0x08008100   Section        0  tcp_out.o(i.tcp_enqueue)
    i.tcp_err                                0x080083f0   Section        0  tcp.o(i.tcp_err)
    i.tcp_fasttmr                            0x080083f8   Section        0  tcp.o(i.tcp_fasttmr)
    i.tcp_input                              0x08008450   Section        0  tcp_in.o(i.tcp_input)
    i.tcp_keepalive                          0x0800876c   Section        0  tcp_out.o(i.tcp_keepalive)
    i.tcp_led_control                        0x080087b4   Section        0  client.o(i.tcp_led_control)
    i.tcp_listen_input                       0x080087d4   Section        0  tcp_in.o(i.tcp_listen_input)
    tcp_listen_input                         0x080087d5   Thumb Code   222  tcp_in.o(i.tcp_listen_input)
    i.tcp_listen_with_backlog                0x080088bc   Section        0  tcp.o(i.tcp_listen_with_backlog)
    i.tcp_new                                0x08008940   Section        0  tcp.o(i.tcp_new)
    i.tcp_new_port                           0x08008948   Section        0  tcp.o(i.tcp_new_port)
    tcp_new_port                             0x08008949   Thumb Code    92  tcp.o(i.tcp_new_port)
    i.tcp_next_iss                           0x080089a8   Section        0  tcp.o(i.tcp_next_iss)
    i.tcp_output                             0x080089b8   Section        0  tcp_out.o(i.tcp_output)
    i.tcp_output_segment                     0x08008bd0   Section        0  tcp_out.o(i.tcp_output_segment)
    tcp_output_segment                       0x08008bd1   Thumb Code   168  tcp_out.o(i.tcp_output_segment)
    i.tcp_output_set_header                  0x08008c80   Section        0  tcp_out.o(i.tcp_output_set_header)
    tcp_output_set_header                    0x08008c81   Thumb Code   120  tcp_out.o(i.tcp_output_set_header)
    i.tcp_parseopt                           0x08008cf8   Section        0  tcp_in.o(i.tcp_parseopt)
    tcp_parseopt                             0x08008cf9   Thumb Code   124  tcp_in.o(i.tcp_parseopt)
    i.tcp_pcb_purge                          0x08008d78   Section        0  tcp.o(i.tcp_pcb_purge)
    i.tcp_pcb_remove                         0x08008da8   Section        0  tcp.o(i.tcp_pcb_remove)
    i.tcp_poll                               0x08008e08   Section        0  tcp.o(i.tcp_poll)
    i.tcp_process                            0x08008e14   Section        0  tcp_in.o(i.tcp_process)
    tcp_process                              0x08008e15   Thumb Code   814  tcp_in.o(i.tcp_process)
    i.tcp_receive                            0x08009158   Section        0  tcp_in.o(i.tcp_receive)
    tcp_receive                              0x08009159   Thumb Code  1130  tcp_in.o(i.tcp_receive)
    i.tcp_recv                               0x080095c2   Section        0  tcp.o(i.tcp_recv)
    i.tcp_recv_null                          0x080095c8   Section        0  tcp.o(i.tcp_recv_null)
    tcp_recv_null                            0x080095c9   Thumb Code    28  tcp.o(i.tcp_recv_null)
    i.tcp_recved                             0x080095e4   Section        0  tcp.o(i.tcp_recved)
    i.tcp_rexmit                             0x08009620   Section        0  tcp_out.o(i.tcp_rexmit)
    i.tcp_rexmit_rto                         0x08009674   Section        0  tcp_out.o(i.tcp_rexmit_rto)
    i.tcp_rst                                0x080096a2   Section        0  tcp_out.o(i.tcp_rst)
    i.tcp_seg_free                           0x0800973a   Section        0  tcp.o(i.tcp_seg_free)
    i.tcp_segs_free                          0x0800975a   Section        0  tcp.o(i.tcp_segs_free)
    i.tcp_send_ctrl                          0x08009774   Section        0  tcp_out.o(i.tcp_send_ctrl)
    i.tcp_sent                               0x0800978a   Section        0  tcp.o(i.tcp_sent)
    i.tcp_server_accept                      0x08009790   Section        0  server.o(i.tcp_server_accept)
    i.tcp_server_recv                        0x080097a4   Section        0  server.o(i.tcp_server_recv)
    tcp_server_recv                          0x080097a5   Thumb Code    52  server.o(i.tcp_server_recv)
    i.tcp_slowtmr                            0x080097d8   Section        0  tcp.o(i.tcp_slowtmr)
    i.tcp_tmr                                0x080099e8   Section        0  tcp.o(i.tcp_tmr)
    i.tcp_update_rcv_ann_wnd                 0x08009a08   Section        0  tcp.o(i.tcp_update_rcv_ann_wnd)
    i.tcp_write                              0x08009a32   Section        0  tcp_out.o(i.tcp_write)
    i.tcp_zero_window_probe                  0x08009a60   Section        0  tcp_out.o(i.tcp_zero_window_probe)
    i.tftp_cleanup_rd                        0x08009ab4   Section        0  tftpserver.o(i.tftp_cleanup_rd)
    i.tftp_cleanup_wr                        0x08009af8   Section        0  tftpserver.o(i.tftp_cleanup_wr)
    i.tftp_construct_error_message           0x08009b3c   Section        0  tftpserver.o(i.tftp_construct_error_message)
    i.tftp_decode_op                         0x08009b6c   Section        0  tftputils.o(i.tftp_decode_op)
    i.tftp_extract_block                     0x08009b70   Section        0  tftputils.o(i.tftp_extract_block)
    i.tftp_extract_filename                  0x08009b76   Section        0  tftputils.o(i.tftp_extract_filename)
    i.tftp_is_correct_ack                    0x08009b7c   Section        0  tftputils.o(i.tftp_is_correct_ack)
    i.tftp_process_read                      0x08009b98   Section        0  tftpserver.o(i.tftp_process_read)
    i.tftp_process_write                     0x08009c18   Section        0  tftpserver.o(i.tftp_process_write)
    i.tftp_send_ack_packet                   0x08009c98   Section        0  tftpserver.o(i.tftp_send_ack_packet)
    i.tftp_send_data_packet                  0x08009cc8   Section        0  tftpserver.o(i.tftp_send_data_packet)
    i.tftp_send_error_message                0x08009d0e   Section        0  tftpserver.o(i.tftp_send_error_message)
    i.tftp_send_message                      0x08009d36   Section        0  tftpserver.o(i.tftp_send_message)
    i.tftp_send_next_block                   0x08009d7c   Section        0  tftpserver.o(i.tftp_send_next_block)
    i.tftp_set_block                         0x08009db4   Section        0  tftputils.o(i.tftp_set_block)
    i.tftp_set_data_message                  0x08009dc2   Section        0  tftputils.o(i.tftp_set_data_message)
    i.tftp_set_errorcode                     0x08009dc8   Section        0  tftputils.o(i.tftp_set_errorcode)
    i.tftp_set_errormsg                      0x08009dd0   Section        0  tftputils.o(i.tftp_set_errormsg)
    i.tftp_set_opcode                        0x08009dd6   Section        0  tftputils.o(i.tftp_set_opcode)
    i.tftpd_init                             0x08009de0   Section        0  tftpserver.o(i.tftpd_init)
    i.udp_bind                               0x08009e18   Section        0  udp.o(i.udp_bind)
    i.udp_client_callback                    0x08009e74   Section        0  client.o(i.udp_client_callback)
    i.udp_connect                            0x08009f1c   Section        0  udp.o(i.udp_connect)
    i.udp_disconnect                         0x08009f68   Section        0  udp.o(i.udp_disconnect)
    i.udp_input                              0x08009f80   Section        0  udp.o(i.udp_input)
    i.udp_new                                0x0800a0e4   Section        0  udp.o(i.udp_new)
    i.udp_recv                               0x0800a0fe   Section        0  udp.o(i.udp_recv)
    i.udp_remove                             0x0800a104   Section        0  udp.o(i.udp_remove)
    i.udp_send                               0x0800a130   Section        0  udp.o(i.udp_send)
    i.udp_sendto                             0x0800a138   Section        0  udp.o(i.udp_sendto)
    i.udp_sendto_if                          0x0800a160   Section        0  udp.o(i.udp_sendto_if)
    i.udp_server_callback                    0x0800a210   Section        0  server.o(i.udp_server_callback)
    i.update_arp_entry                       0x0800a2f4   Section        0  etharp.o(i.update_arp_entry)
    update_arp_entry                         0x0800a2f5   Thumb Code   162  etharp.o(i.update_arp_entry)
    i.wrq_recv_callback                      0x0800a39c   Section        0  tftpserver.o(i.wrq_recv_callback)
    .constdata                               0x0800a450   Section     2707  httpd.o(.constdata)
    data_images_ST_gif                       0x0800a450   Data        2707  httpd.o(.constdata)
    .constdata                               0x0800aee3   Section    18977  httpd.o(.constdata)
    data_images_stm32_newline__gif           0x0800aee3   Data       18977  httpd.o(.constdata)
    .constdata                               0x0800f904   Section     6122  httpd.o(.constdata)
    data_STM32F107_html                      0x0800f904   Data        6122  httpd.o(.constdata)
    .constdata                               0x080110ee   Section     4025  httpd.o(.constdata)
    data_STM32F107LED_html                   0x080110ee   Data        4025  httpd.o(.constdata)
    .constdata                               0x080120a8   Section       16  httpd.o(.constdata)
    file_images_ST_gif                       0x080120a8   Data          16  httpd.o(.constdata)
    .constdata                               0x080120b8   Section       16  httpd.o(.constdata)
    file_images_stm32_newline__gif           0x080120b8   Data          16  httpd.o(.constdata)
    .constdata                               0x080120c8   Section       16  httpd.o(.constdata)
    file_STM32F107_html                      0x080120c8   Data          16  httpd.o(.constdata)
    .constdata                               0x080120d8   Section       16  httpd.o(.constdata)
    file_STM32F107LED_html                   0x080120d8   Data          16  httpd.o(.constdata)
    .constdata                               0x080120e8   Section       80  stm32_eval.o(.constdata)
    .constdata                               0x08012138   Section     4560  stm3210c_eval_lcd.o(.constdata)
    .constdata                               0x08013308   Section       20  tcp.o(.constdata)
    .constdata                               0x0801331c   Section       36  memp.o(.constdata)
    memp_sizes                               0x0801331c   Data          18  memp.o(.constdata)
    memp_num                                 0x0801332e   Data          18  memp.o(.constdata)
    .constdata                               0x08013340   Section        4  ip_addr.o(.constdata)
    .constdata                               0x08013344   Section        4  ip_addr.o(.constdata)
    .constdata                               0x08013348   Section       12  etharp.o(.constdata)
    .conststring                             0x08013354   Section       15  httpd.o(.conststring)
    .conststring                             0x08013364   Section       27  httpd.o(.conststring)
    .conststring                             0x08013380   Section       16  httpd.o(.conststring)
    .conststring                             0x08013390   Section       19  httpd.o(.conststring)
    .conststring                             0x080133a4   Section       19  httpd.o(.conststring)
    .conststring                             0x080133b8   Section      136  tftpserver.o(.conststring)
    .data                                    0x20000000   Section        4  stm32f10x_it.o(.data)
    TS_State                                 0x20000000   Data           4  stm32f10x_it.o(.data)
    .data                                    0x20000004   Section        8  main.o(.data)
    .data                                    0x2000000c   Section       28  netconf.o(.data)
    IPaddress                                0x20000020   Data           4  netconf.o(.data)
    .data                                    0x20000028   Section     4601  httpd.o(.data)
    .data                                    0x20001224   Section       16  httpd.o(.data)
    .data                                    0x20001234   Section       36  tftpserver.o(.data)
    .data                                    0x20001258   Section        4  client.o(.data)
    TcpPCB                                   0x20001258   Data           4  client.o(.data)
    .data                                    0x2000125c   Section       20  stm32f10x_rcc.o(.data)
    ADCPrescTable                            0x2000125c   Data           4  stm32f10x_rcc.o(.data)
    APBAHBPrescTable                         0x20001260   Data          16  stm32f10x_rcc.o(.data)
    .data                                    0x20001270   Section       16  stm32_eth.o(.data)
    .data                                    0x20001280   Section       24  stm3210c_eval_ioe.o(.data)
    _x                                       0x20001284   Data           4  stm3210c_eval_ioe.o(.data)
    _y                                       0x20001288   Data           4  stm3210c_eval_ioe.o(.data)
    tmp                                      0x2000128c   Data           4  stm3210c_eval_ioe.o(.data)
    .data                                    0x20001298   Section       36  stm32_eval.o(.data)
    .data                                    0x200012bc   Section        4  stm3210c_eval_lcd.o(.data)
    TextColor                                0x200012bc   Data           2  stm3210c_eval_lcd.o(.data)
    BackColor                                0x200012be   Data           2  stm3210c_eval_lcd.o(.data)
    .data                                    0x200012c0   Section        6  ethernetif.o(.data)
    .data                                    0x200012c8   Section       32  tcp.o(.data)
    tcp_timer                                0x200012c8   Data           1  tcp.o(.data)
    port                                     0x200012ca   Data           2  tcp.o(.data)
    iss                                      0x200012cc   Data           4  tcp.o(.data)
    .data                                    0x200012e8   Section       28  tcp_in.o(.data)
    flags                                    0x200012e8   Data           1  tcp_in.o(.data)
    recv_flags                               0x200012e9   Data           1  tcp_in.o(.data)
    tcplen                                   0x200012ea   Data           2  tcp_in.o(.data)
    tcphdr                                   0x200012ec   Data           4  tcp_in.o(.data)
    iphdr                                    0x200012f0   Data           4  tcp_in.o(.data)
    seqno                                    0x200012f4   Data           4  tcp_in.o(.data)
    ackno                                    0x200012f8   Data           4  tcp_in.o(.data)
    recv_data                                0x200012fc   Data           4  tcp_in.o(.data)
    .data                                    0x20001304   Section        4  udp.o(.data)
    .data                                    0x20001308   Section        4  dhcp.o(.data)
    xid                                      0x20001308   Data           4  dhcp.o(.data)
    .data                                    0x2000130c   Section       16  mem.o(.data)
    mem_sem                                  0x2000130c   Data           1  mem.o(.data)
    ram                                      0x20001310   Data           4  mem.o(.data)
    ram_end                                  0x20001314   Data           4  mem.o(.data)
    lfree                                    0x20001318   Data           4  mem.o(.data)
    .data                                    0x2000131c   Section       12  netif.o(.data)
    netifnum                                 0x2000131c   Data           1  netif.o(.data)
    .data                                    0x20001328   Section        4  raw.o(.data)
    raw_pcbs                                 0x20001328   Data           4  raw.o(.data)
    .data                                    0x2000132c   Section       12  ip.o(.data)
    ip_id                                    0x2000132c   Data           2  ip.o(.data)
    current_netif                            0x20001330   Data           4  ip.o(.data)
    current_header                           0x20001334   Data           4  ip.o(.data)
    .data                                    0x20001338   Section        8  ip_frag.o(.data)
    ip_reass_pbufcount                       0x20001338   Data           2  ip_frag.o(.data)
    reassdatagrams                           0x2000133c   Data           4  ip_frag.o(.data)
    .data                                    0x20001340   Section        1  etharp.o(.data)
    etharp_cached_entry                      0x20001340   Data           1  etharp.o(.data)
    .bss                                     0x20001344   Section       52  netconf.o(.bss)
    .bss                                     0x20001378   Section     1648  tftpserver.o(.bss)
    .bss                                     0x200019e8   Section     9216  ethernetif.o(.bss)
    .bss                                     0x20003de8   Section       20  tcp_in.o(.bss)
    inseg                                    0x20003de8   Data          20  tcp_in.o(.bss)
    .bss                                     0x20003dfc   Section    20500  mem.o(.bss)
    ram_heap                                 0x20003dfc   Data       20500  mem.o(.bss)
    .bss                                     0x20008e10   Section    18095  memp.o(.bss)
    memp_tab                                 0x20008e10   Data          36  memp.o(.bss)
    memp_memory                              0x20008e34   Data       18059  memp.o(.bss)
    .bss                                     0x2000d4bf   Section     1504  ip_frag.o(.bss)
    buf                                      0x2000d4bf   Data        1504  ip_frag.o(.bss)
    .bss                                     0x2000daa0   Section      200  etharp.o(.bss)
    arp_table                                0x2000daa0   Data         200  etharp.o(.bss)
    .bss                                     0x2000db68   Section       96  libspace.o(.bss)
    HEAP                                     0x2000dbc8   Section      512  startup_stm32f10x_cl.o(HEAP)
    Heap_Mem                                 0x2000dbc8   Data         512  startup_stm32f10x_cl.o(HEAP)
    STACK                                    0x2000ddc8   Section     1024  startup_stm32f10x_cl.o(STACK)
    Stack_Mem                                0x2000ddc8   Data        1024  startup_stm32f10x_cl.o(STACK)
    __initial_sp                             0x2000e1c8   Data           0  startup_stm32f10x_cl.o(STACK)

    Global Symbols

    Symbol Name                              Value     Ov Type        Size  Object(Section)

    BuildAttributes$$THM_ISAv4$P$D$K$B$S$PE$A:L22UL41UL21$X:L11$S22US41US21$IEEE1$IW$USESV6$~STKCKD$USESV7$~SHL$OSPACE$ROPI$EBA8$UX$STANDARDLIB$REQ8$PRES8$EABIv2 0x00000000   Number         0  anon$$obj.o ABSOLUTE
    __ARM_use_no_argv                        0x00000000   Number         0  main.o ABSOLUTE
    __ARM_exceptions_init                     - Undefined Weak Reference
    __alloca_initialize                       - Undefined Weak Reference
    __arm_preinit_                            - Undefined Weak Reference
    __cpp_initialize__aeabi_                  - Undefined Weak Reference
    __cxa_finalize                            - Undefined Weak Reference
    __rt_locale                               - Undefined Weak Reference
    __sigvec_lookup                           - Undefined Weak Reference
    _atexit_init                              - Undefined Weak Reference
    _call_atexit_fns                          - Undefined Weak Reference
    _clock_init                               - Undefined Weak Reference
    _fp_trap_init                             - Undefined Weak Reference
    _fp_trap_shutdown                         - Undefined Weak Reference
    _get_lc_collate                           - Undefined Weak Reference
    _get_lc_ctype                             - Undefined Weak Reference
    _get_lc_monetary                          - Undefined Weak Reference
    _get_lc_numeric                           - Undefined Weak Reference
    _get_lc_time                              - Undefined Weak Reference
    _getenv_init                              - Undefined Weak Reference
    _handle_redirection                       - Undefined Weak Reference
    _init_alloc                               - Undefined Weak Reference
    _init_user_alloc                          - Undefined Weak Reference
    _initio                                   - Undefined Weak Reference
    _printf_post_padding                      - Undefined Weak Reference
    _printf_pre_padding                       - Undefined Weak Reference
    _printf_truncate_signed                   - Undefined Weak Reference
    _printf_truncate_unsigned                 - Undefined Weak Reference
    _rand_init                                - Undefined Weak Reference
    _signal_finish                            - Undefined Weak Reference
    _signal_init                              - Undefined Weak Reference
    _terminate_alloc                          - Undefined Weak Reference
    _terminate_user_alloc                     - Undefined Weak Reference
    _terminateio                              - Undefined Weak Reference
    __Vectors_Size                           0x00000150   Number         0  startup_stm32f10x_cl.o ABSOLUTE
    __Vectors                                0x08000000   Data           4  startup_stm32f10x_cl.o(RESET)
    __Vectors_End                            0x08000150   Data           0  startup_stm32f10x_cl.o(RESET)
    __main                                   0x08000151   Thumb Code     8  __main.o(!!!main)
    __scatterload                            0x08000159   Thumb Code     0  __scatter.o(!!!scatter)
    __scatterload_rt2                        0x08000159   Thumb Code    44  __scatter.o(!!!scatter)
    __scatterload_rt2_thumb_only             0x08000159   Thumb Code     0  __scatter.o(!!!scatter)
    __scatterload_null                       0x08000167   Thumb Code     0  __scatter.o(!!!scatter)
    __decompress                             0x0800018d   Thumb Code   100  __dclz77c.o(!!dclz77c)
    __decompress2                            0x0800018d   Thumb Code     0  __dclz77c.o(!!dclz77c)
    __scatterload_zeroinit                   0x080001f1   Thumb Code    28  __scatter_zi.o(!!handler_zi)
    _printf_d                                0x0800020d   Thumb Code     0  _printf_d.o(.ARM.Collect$$_printf_percent$$00000009)
    _printf_percent                          0x0800020d   Thumb Code     0  _printf_percent.o(.ARM.Collect$$_printf_percent$$00000000)
    _printf_percent_end                      0x08000213   Thumb Code     0  _printf_percent_end.o(.ARM.Collect$$_printf_percent$$00000017)
    __rt_lib_init                            0x08000217   Thumb Code     0  libinit.o(.ARM.Collect$$libinit$$00000000)
    __rt_lib_init_alloca_1                   0x08000219   Thumb Code     0  libinit2.o(.ARM.Collect$$libinit$$0000002E)
    __rt_lib_init_argv_1                     0x08000219   Thumb Code     0  libinit2.o(.ARM.Collect$$libinit$$0000002C)
    __rt_lib_init_atexit_1                   0x08000219   Thumb Code     0  libinit2.o(.ARM.Collect$$libinit$$0000001B)
    __rt_lib_init_clock_1                    0x08000219   Thumb Code     0  libinit2.o(.ARM.Collect$$libinit$$00000021)
    __rt_lib_init_cpp_1                      0x08000219   Thumb Code     0  libinit2.o(.ARM.Collect$$libinit$$00000032)
    __rt_lib_init_exceptions_1               0x08000219   Thumb Code     0  libinit2.o(.ARM.Collect$$libinit$$00000030)
    __rt_lib_init_fp_1                       0x08000219   Thumb Code     0  libinit2.o(.ARM.Collect$$libinit$$00000002)
    __rt_lib_init_fp_trap_1                  0x08000219   Thumb Code     0  libinit2.o(.ARM.Collect$$libinit$$0000001F)
    __rt_lib_init_getenv_1                   0x08000219   Thumb Code     0  libinit2.o(.ARM.Collect$$libinit$$00000023)
    __rt_lib_init_heap_1                     0x08000219   Thumb Code     0  libinit2.o(.ARM.Collect$$libinit$$0000000A)
    __rt_lib_init_lc_collate_1               0x08000219   Thumb Code     0  libinit2.o(.ARM.Collect$$libinit$$00000011)
    __rt_lib_init_lc_ctype_1                 0x08000219   Thumb Code     0  libinit2.o(.ARM.Collect$$libinit$$00000013)
    __rt_lib_init_lc_monetary_1              0x08000219   Thumb Code     0  libinit2.o(.ARM.Collect$$libinit$$00000015)
    __rt_lib_init_lc_numeric_1               0x08000219   Thumb Code     0  libinit2.o(.ARM.Collect$$libinit$$00000017)
    __rt_lib_init_lc_time_1                  0x08000219   Thumb Code     0  libinit2.o(.ARM.Collect$$libinit$$00000019)
    __rt_lib_init_preinit_1                  0x08000219   Thumb Code     0  libinit2.o(.ARM.Collect$$libinit$$00000004)
    __rt_lib_init_rand_1                     0x08000219   Thumb Code     0  libinit2.o(.ARM.Collect$$libinit$$0000000E)
    __rt_lib_init_return                     0x08000219   Thumb Code     0  libinit2.o(.ARM.Collect$$libinit$$00000033)
    __rt_lib_init_signal_1                   0x08000219   Thumb Code     0  libinit2.o(.ARM.Collect$$libinit$$0000001D)
    __rt_lib_init_stdio_1                    0x08000219   Thumb Code     0  libinit2.o(.ARM.Collect$$libinit$$00000025)
    __rt_lib_init_user_alloc_1               0x08000219   Thumb Code     0  libinit2.o(.ARM.Collect$$libinit$$0000000C)
    __rt_lib_shutdown                        0x0800021b   Thumb Code     0  libshutdown.o(.ARM.Collect$$libshutdown$$00000000)
    __rt_lib_shutdown_fp_trap_1              0x0800021d   Thumb Code     0  libshutdown2.o(.ARM.Collect$$libshutdown$$00000006)
    __rt_lib_shutdown_heap_1                 0x0800021d   Thumb Code     0  libshutdown2.o(.ARM.Collect$$libshutdown$$0000000E)
    __rt_lib_shutdown_return                 0x0800021d   Thumb Code     0  libshutdown2.o(.ARM.Collect$$libshutdown$$0000000F)
    __rt_lib_shutdown_signal_1               0x0800021d   Thumb Code     0  libshutdown2.o(.ARM.Collect$$libshutdown$$00000009)
    __rt_lib_shutdown_stdio_1                0x0800021d   Thumb Code     0  libshutdown2.o(.ARM.Collect$$libshutdown$$00000003)
    __rt_lib_shutdown_user_alloc_1           0x0800021d   Thumb Code     0  libshutdown2.o(.ARM.Collect$$libshutdown$$0000000B)
    __rt_entry                               0x0800021f   Thumb Code     0  __rtentry.o(.ARM.Collect$$rtentry$$00000000)
    __rt_entry_presh_1                       0x0800021f   Thumb Code     0  __rtentry2.o(.ARM.Collect$$rtentry$$00000002)
    __rt_entry_sh                            0x0800021f   Thumb Code     0  __rtentry4.o(.ARM.Collect$$rtentry$$00000004)
    __rt_entry_li                            0x08000225   Thumb Code     0  __rtentry2.o(.ARM.Collect$$rtentry$$0000000A)
    __rt_entry_postsh_1                      0x08000225   Thumb Code     0  __rtentry2.o(.ARM.Collect$$rtentry$$00000009)
    __rt_entry_main                          0x08000229   Thumb Code     0  __rtentry2.o(.ARM.Collect$$rtentry$$0000000D)
    __rt_entry_postli_1                      0x08000229   Thumb Code     0  __rtentry2.o(.ARM.Collect$$rtentry$$0000000C)
    __rt_exit                                0x08000231   Thumb Code     0  rtexit.o(.ARM.Collect$$rtexit$$00000000)
    __rt_exit_ls                             0x08000233   Thumb Code     0  rtexit2.o(.ARM.Collect$$rtexit$$00000003)
    __rt_exit_prels_1                        0x08000233   Thumb Code     0  rtexit2.o(.ARM.Collect$$rtexit$$00000002)
    __rt_exit_exit                           0x08000237   Thumb Code     0  rtexit2.o(.ARM.Collect$$rtexit$$00000004)
    Reset_Handler                            0x0800023d   Thumb Code     4  startup_stm32f10x_cl.o(.text)
    ADC1_2_IRQHandler                        0x08000253   Thumb Code     0  startup_stm32f10x_cl.o(.text)
    CAN1_RX0_IRQHandler                      0x08000253   Thumb Code     0  startup_stm32f10x_cl.o(.text)
    CAN1_RX1_IRQHandler                      0x08000253   Thumb Code     0  startup_stm32f10x_cl.o(.text)
    CAN1_SCE_IRQHandler                      0x08000253   Thumb Code     0  startup_stm32f10x_cl.o(.text)
    CAN1_TX_IRQHandler                       0x08000253   Thumb Code     0  startup_stm32f10x_cl.o(.text)
    CAN2_RX0_IRQHandler                      0x08000253   Thumb Code     0  startup_stm32f10x_cl.o(.text)
    CAN2_RX1_IRQHandler                      0x08000253   Thumb Code     0  startup_stm32f10x_cl.o(.text)
    CAN2_SCE_IRQHandler                      0x08000253   Thumb Code     0  startup_stm32f10x_cl.o(.text)
    CAN2_TX_IRQHandler                       0x08000253   Thumb Code     0  startup_stm32f10x_cl.o(.text)
    DMA1_Channel1_IRQHandler                 0x08000253   Thumb Code     0  startup_stm32f10x_cl.o(.text)
    DMA1_Channel2_IRQHandler                 0x08000253   Thumb Code     0  startup_stm32f10x_cl.o(.text)
    DMA1_Channel3_IRQHandler                 0x08000253   Thumb Code     0  startup_stm32f10x_cl.o(.text)
    DMA1_Channel4_IRQHandler                 0x08000253   Thumb Code     0  startup_stm32f10x_cl.o(.text)
    DMA1_Channel5_IRQHandler                 0x08000253   Thumb Code     0  startup_stm32f10x_cl.o(.text)
    DMA1_Channel6_IRQHandler                 0x08000253   Thumb Code     0  startup_stm32f10x_cl.o(.text)
    DMA1_Channel7_IRQHandler                 0x08000253   Thumb Code     0  startup_stm32f10x_cl.o(.text)
    DMA2_Channel1_IRQHandler                 0x08000253   Thumb Code     0  startup_stm32f10x_cl.o(.text)
    DMA2_Channel2_IRQHandler                 0x08000253   Thumb Code     0  startup_stm32f10x_cl.o(.text)
    DMA2_Channel3_IRQHandler                 0x08000253   Thumb Code     0  startup_stm32f10x_cl.o(.text)
    DMA2_Channel4_IRQHandler                 0x08000253   Thumb Code     0  startup_stm32f10x_cl.o(.text)
    DMA2_Channel5_IRQHandler                 0x08000253   Thumb Code     0  startup_stm32f10x_cl.o(.text)
    ETH_WKUP_IRQHandler                      0x08000253   Thumb Code     0  startup_stm32f10x_cl.o(.text)
    EXTI0_IRQHandler                         0x08000253   Thumb Code     0  startup_stm32f10x_cl.o(.text)
    EXTI1_IRQHandler                         0x08000253   Thumb Code     0  startup_stm32f10x_cl.o(.text)
    EXTI2_IRQHandler                         0x08000253   Thumb Code     0  startup_stm32f10x_cl.o(.text)
    EXTI3_IRQHandler                         0x08000253   Thumb Code     0  startup_stm32f10x_cl.o(.text)
    EXTI4_IRQHandler                         0x08000253   Thumb Code     0  startup_stm32f10x_cl.o(.text)
    EXTI9_5_IRQHandler                       0x08000253   Thumb Code     0  startup_stm32f10x_cl.o(.text)
    FLASH_IRQHandler                         0x08000253   Thumb Code     0  startup_stm32f10x_cl.o(.text)
    I2C1_ER_IRQHandler                       0x08000253   Thumb Code     0  startup_stm32f10x_cl.o(.text)
    I2C1_EV_IRQHandler                       0x08000253   Thumb Code     0  startup_stm32f10x_cl.o(.text)
    I2C2_ER_IRQHandler                       0x08000253   Thumb Code     0  startup_stm32f10x_cl.o(.text)
    I2C2_EV_IRQHandler                       0x08000253   Thumb Code     0  startup_stm32f10x_cl.o(.text)
    OTG_FS_IRQHandler                        0x08000253   Thumb Code     0  startup_stm32f10x_cl.o(.text)
    OTG_FS_WKUP_IRQHandler                   0x08000253   Thumb Code     0  startup_stm32f10x_cl.o(.text)
    PVD_IRQHandler                           0x08000253   Thumb Code     0  startup_stm32f10x_cl.o(.text)
    RCC_IRQHandler                           0x08000253   Thumb Code     0  startup_stm32f10x_cl.o(.text)
    RTCAlarm_IRQHandler                      0x08000253   Thumb Code     0  startup_stm32f10x_cl.o(.text)
    RTC_IRQHandler                           0x08000253   Thumb Code     0  startup_stm32f10x_cl.o(.text)
    SPI1_IRQHandler                          0x08000253   Thumb Code     0  startup_stm32f10x_cl.o(.text)
    SPI2_IRQHandler                          0x08000253   Thumb Code     0  startup_stm32f10x_cl.o(.text)
    SPI3_IRQHandler                          0x08000253   Thumb Code     0  startup_stm32f10x_cl.o(.text)
    TAMPER_IRQHandler                        0x08000253   Thumb Code     0  startup_stm32f10x_cl.o(.text)
    TIM1_BRK_IRQHandler                      0x08000253   Thumb Code     0  startup_stm32f10x_cl.o(.text)
    TIM1_CC_IRQHandler                       0x08000253   Thumb Code     0  startup_stm32f10x_cl.o(.text)
    TIM1_TRG_COM_IRQHandler                  0x08000253   Thumb Code     0  startup_stm32f10x_cl.o(.text)
    TIM1_UP_IRQHandler                       0x08000253   Thumb Code     0  startup_stm32f10x_cl.o(.text)
    TIM2_IRQHandler                          0x08000253   Thumb Code     0  startup_stm32f10x_cl.o(.text)
    TIM3_IRQHandler                          0x08000253   Thumb Code     0  startup_stm32f10x_cl.o(.text)
    TIM4_IRQHandler                          0x08000253   Thumb Code     0  startup_stm32f10x_cl.o(.text)
    TIM5_IRQHandler                          0x08000253   Thumb Code     0  startup_stm32f10x_cl.o(.text)
    TIM6_IRQHandler                          0x08000253   Thumb Code     0  startup_stm32f10x_cl.o(.text)
    TIM7_IRQHandler                          0x08000253   Thumb Code     0  startup_stm32f10x_cl.o(.text)
    UART4_IRQHandler                         0x08000253   Thumb Code     0  startup_stm32f10x_cl.o(.text)
    UART5_IRQHandler                         0x08000253   Thumb Code     0  startup_stm32f10x_cl.o(.text)
    USART1_IRQHandler                        0x08000253   Thumb Code     0  startup_stm32f10x_cl.o(.text)
    USART2_IRQHandler                        0x08000253   Thumb Code     0  startup_stm32f10x_cl.o(.text)
    USART3_IRQHandler                        0x08000253   Thumb Code     0  startup_stm32f10x_cl.o(.text)
    WWDG_IRQHandler                          0x08000253   Thumb Code     0  startup_stm32f10x_cl.o(.text)
    __user_initial_stackheap                 0x08000255   Thumb Code     0  startup_stm32f10x_cl.o(.text)
    __2sprintf                               0x08000275   Thumb Code    34  noretval__2sprintf.o(.text)
    __printf                                 0x0800029d   Thumb Code   104  __printf.o(.text)
    _printf_int_dec                          0x08000305   Thumb Code   104  _printf_dec.o(.text)
    strcpy                                   0x0800037d   Thumb Code    72  strcpy.o(.text)
    strlen                                   0x080003c5   Thumb Code    62  strlen.o(.text)
    strncmp                                  0x08000403   Thumb Code   150  strncmp.o(.text)
    __aeabi_memcpy                           0x08000499   Thumb Code     0  rt_memcpy_v6.o(.text)
    __rt_memcpy                              0x08000499   Thumb Code   138  rt_memcpy_v6.o(.text)
    _memcpy_lastbytes                        0x080004ff   Thumb Code     0  rt_memcpy_v6.o(.text)
    __aeabi_memcpy4                          0x08000523   Thumb Code     0  rt_memcpy_w.o(.text)
    __aeabi_memcpy8                          0x08000523   Thumb Code     0  rt_memcpy_w.o(.text)
    __rt_memcpy_w                            0x08000523   Thumb Code   100  rt_memcpy_w.o(.text)
    _memcpy_lastbytes_aligned                0x0800056b   Thumb Code     0  rt_memcpy_w.o(.text)
    __aeabi_memclr                           0x08000587   Thumb Code     0  rt_memclr.o(.text)
    __rt_memclr                              0x08000587   Thumb Code    68  rt_memclr.o(.text)
    _memset                                  0x0800058b   Thumb Code     0  rt_memclr.o(.text)
    __aeabi_memclr4                          0x080005cb   Thumb Code     0  rt_memclr_w.o(.text)
    __aeabi_memclr8                          0x080005cb   Thumb Code     0  rt_memclr_w.o(.text)
    __rt_memclr_w                            0x080005cb   Thumb Code    78  rt_memclr_w.o(.text)
    _memset_w                                0x080005cf   Thumb Code     0  rt_memclr_w.o(.text)
    strcmp                                   0x08000619   Thumb Code   128  strcmpv7m.o(.text)
    __use_two_region_memory                  0x08000699   Thumb Code     2  heapauxi.o(.text)
    __rt_heap_escrow$2region                 0x0800069b   Thumb Code     2  heapauxi.o(.text)
    __rt_heap_expand$2region                 0x0800069d   Thumb Code     2  heapauxi.o(.text)
    _printf_int_common                       0x0800069f   Thumb Code   178  _printf_intcommon.o(.text)
    _printf_char_common                      0x0800075b   Thumb Code    32  _printf_char_common.o(.text)
    _sputc                                   0x08000781   Thumb Code    10  _sputc.o(.text)
    __user_setup_stackheap                   0x0800078b   Thumb Code    74  sys_stackheap_outer.o(.text)
    exit                                     0x080007d5   Thumb Code    12  exit.o(.text)
    __user_libspace                          0x080007e1   Thumb Code     8  libspace.o(.text)
    __user_perproc_libspace                  0x080007e1   Thumb Code     0  libspace.o(.text)
    __user_perthread_libspace                0x080007e1   Thumb Code     0  libspace.o(.text)
    _sys_exit                                0x080007e9   Thumb Code     8  sys_exit.o(.text)
    __I$use$semihosting                      0x080007f5   Thumb Code     0  use_no_semi.o(.text)
    __use_no_semihosting_swi                 0x080007f5   Thumb Code     2  use_no_semi.o(.text)
    ADC_Cmd                                  0x080007f7   Thumb Code    20  stm32f10x_adc.o(i.ADC_Cmd)
    __semihosting_library_function           0x080007f7   Thumb Code     0  indicate_semi.o(.text)
    ADC_Configuration                        0x0800080d   Thumb Code    72  stm32f107.o(i.ADC_Configuration)
    ADC_GetConversionValue                   0x08000859   Thumb Code     6  stm32f10x_adc.o(i.ADC_GetConversionValue)
    ADC_Init                                 0x08000861   Thumb Code    62  stm32f10x_adc.o(i.ADC_Init)
    ADC_RegularChannelConfig                 0x080008a9   Thumb Code   116  stm32f10x_adc.o(i.ADC_RegularChannelConfig)
    ADC_SoftwareStartConvCmd                 0x0800091d   Thumb Code    20  stm32f10x_adc.o(i.ADC_SoftwareStartConvCmd)
    BusFault_Handler                         0x08000931   Thumb Code     2  stm32f10x_it.o(i.BusFault_Handler)
    DebugMon_Handler                         0x08000933   Thumb Code     2  stm32f10x_it.o(i.DebugMon_Handler)
    Delay                                    0x08000935   Thumb Code    16  main.o(i.Delay)
    Display_Periodic_Handle                  0x08000949   Thumb Code   388  netconf.o(i.Display_Periodic_Handle)
    ETH_DMAClearITPendingBit                 0x08000bf1   Thumb Code     6  stm32_eth.o(i.ETH_DMAClearITPendingBit)
    ETH_DMAITConfig                          0x08000bfd   Thumb Code    18  stm32_eth.o(i.ETH_DMAITConfig)
    ETH_DMAReceptionCmd                      0x08000c15   Thumb Code    22  stm32_eth.o(i.ETH_DMAReceptionCmd)
    ETH_DMARxDescChainInit                   0x08000c31   Thumb Code    68  stm32_eth.o(i.ETH_DMARxDescChainInit)
    ETH_DMARxDescReceiveITConfig             0x08000c7d   Thumb Code    18  stm32_eth.o(i.ETH_DMARxDescReceiveITConfig)
    ETH_DMATransmissionCmd                   0x08000c91   Thumb Code    22  stm32_eth.o(i.ETH_DMATransmissionCmd)
    ETH_DMATxDescChainInit                   0x08000cad   Thumb Code    62  stm32_eth.o(i.ETH_DMATxDescChainInit)
    ETH_DMATxDescChecksumInsertionConfig     0x08000cf5   Thumb Code     8  stm32_eth.o(i.ETH_DMATxDescChecksumInsertionConfig)
    ETH_DeInit                               0x08000cfd   Thumb Code    24  stm32_eth.o(i.ETH_DeInit)
    ETH_FlushTransmitFIFO                    0x08000d29   Thumb Code    12  stm32_eth.o(i.ETH_FlushTransmitFIFO)
    ETH_GetCurrentTxBuffer                   0x08000d39   Thumb Code     8  ethernetif.o(i.ETH_GetCurrentTxBuffer)
    ETH_GetDMARxDescFrameLength              0x08000d45   Thumb Code     8  stm32_eth.o(i.ETH_GetDMARxDescFrameLength)
    ETH_GetRxPktSize                         0x08000d4d   Thumb Code    30  stm32_eth.o(i.ETH_GetRxPktSize)
    ETH_GetSoftwareResetStatus               0x08000d71   Thumb Code    14  stm32_eth.o(i.ETH_GetSoftwareResetStatus)
    ETH_IRQHandler                           0x08000d85   Thumb Code    34  stm32f10x_it.o(i.ETH_IRQHandler)
    ETH_Init                                 0x08000da9   Thumb Code   480  stm32_eth.o(i.ETH_Init)
    ETH_MACAddressConfig                     0x08000fb1   Thumb Code    22  stm32_eth.o(i.ETH_MACAddressConfig)
    ETH_MACReceptionCmd                      0x08000fcd   Thumb Code    22  stm32_eth.o(i.ETH_MACReceptionCmd)
    ETH_MACTransmissionCmd                   0x08000fe9   Thumb Code    22  stm32_eth.o(i.ETH_MACTransmissionCmd)
    ETH_ReadPHYRegister                      0x08001005   Thumb Code    80  stm32_eth.o(i.ETH_ReadPHYRegister)
    ETH_RxPkt_ChainMode                      0x0800105d   Thumb Code    72  ethernetif.o(i.ETH_RxPkt_ChainMode)
    ETH_SoftwareReset                        0x080010ad   Thumb Code    12  stm32_eth.o(i.ETH_SoftwareReset)
    ETH_Start                                0x080010bd   Thumb Code    34  stm32_eth.o(i.ETH_Start)
    ETH_StructInit                           0x080010df   Thumb Code   124  stm32_eth.o(i.ETH_StructInit)
    ETH_TxPkt_ChainMode                      0x0800115d   Thumb Code    50  ethernetif.o(i.ETH_TxPkt_ChainMode)
    ETH_WritePHYRegister                     0x08001199   Thumb Code    76  stm32_eth.o(i.ETH_WritePHYRegister)
    EXTI15_10_IRQHandler                     0x080011ed   Thumb Code   218  stm32f10x_it.o(i.EXTI15_10_IRQHandler)
    EXTI_ClearITPendingBit                   0x0800132d   Thumb Code     6  stm32f10x_exti.o(i.EXTI_ClearITPendingBit)
    EXTI_GetITStatus                         0x08001339   Thumb Code    28  stm32f10x_exti.o(i.EXTI_GetITStatus)
    EXTI_Init                                0x08001359   Thumb Code   108  stm32f10x_exti.o(i.EXTI_Init)
    Ethernet_Configuration                   0x080013c9   Thumb Code   144  stm32f107.o(i.Ethernet_Configuration)
    GPIO_Configuration                       0x0800145d   Thumb Code   232  stm32f107.o(i.GPIO_Configuration)
    GPIO_ETH_MediaInterfaceConfig            0x08001555   Thumb Code     8  stm32f10x_gpio.o(i.GPIO_ETH_MediaInterfaceConfig)
    GPIO_EXTILineConfig                      0x08001561   Thumb Code    34  stm32f10x_gpio.o(i.GPIO_EXTILineConfig)
    GPIO_Init                                0x08001589   Thumb Code   156  stm32f10x_gpio.o(i.GPIO_Init)
    GPIO_PinRemapConfig                      0x08001625   Thumb Code    66  stm32f10x_gpio.o(i.GPIO_PinRemapConfig)
    GPIO_ReadInputDataBit                    0x0800166d   Thumb Code    14  stm32f10x_gpio.o(i.GPIO_ReadInputDataBit)
    GPIO_ResetBits                           0x0800167b   Thumb Code     4  stm32f10x_gpio.o(i.GPIO_ResetBits)
    GPIO_SetBits                             0x0800167f   Thumb Code     4  stm32f10x_gpio.o(i.GPIO_SetBits)
    GPIO_WriteBit                            0x08001683   Thumb Code    10  stm32f10x_gpio.o(i.GPIO_WriteBit)
    HardFault_Handler                        0x0800168d   Thumb Code     2  stm32f10x_it.o(i.HardFault_Handler)
    HelloWorld_init                          0x080016ed   Thumb Code    34  helloworld.o(i.HelloWorld_init)
    I2C_AcknowledgeConfig                    0x08001805   Thumb Code    20  stm32f10x_i2c.o(i.I2C_AcknowledgeConfig)
    I2C_CheckEvent                           0x08001819   Thumb Code    24  stm32f10x_i2c.o(i.I2C_CheckEvent)
    I2C_Cmd                                  0x08001831   Thumb Code    20  stm32f10x_i2c.o(i.I2C_Cmd)
    I2C_GenerateSTART                        0x08001845   Thumb Code    20  stm32f10x_i2c.o(i.I2C_GenerateSTART)
    I2C_GenerateSTOP                         0x08001859   Thumb Code    20  stm32f10x_i2c.o(i.I2C_GenerateSTOP)
    I2C_Init                                 0x0800186d   Thumb Code   178  stm32f10x_i2c.o(i.I2C_Init)
    I2C_ReadDataBuffer                       0x08001929   Thumb Code   322  stm3210c_eval_ioe.o(i.I2C_ReadDataBuffer)
    I2C_ReadDeviceRegister                   0x08001a7d   Thumb Code   290  stm3210c_eval_ioe.o(i.I2C_ReadDeviceRegister)
    I2C_ReceiveData                          0x08001bb1   Thumb Code     6  stm32f10x_i2c.o(i.I2C_ReceiveData)
    I2C_Send7bitAddress                      0x08001bb7   Thumb Code    16  stm32f10x_i2c.o(i.I2C_Send7bitAddress)
    I2C_SendData                             0x08001bc7   Thumb Code     4  stm32f10x_i2c.o(i.I2C_SendData)
    I2C_SoftwareResetCmd                     0x08001bcb   Thumb Code    20  stm32f10x_i2c.o(i.I2C_SoftwareResetCmd)
    I2C_WriteDeviceRegister                  0x08001be1   Thumb Code   212  stm3210c_eval_ioe.o(i.I2C_WriteDeviceRegister)
    IOE_ClearGITPending                      0x08001cc5   Thumb Code    14  stm3210c_eval_ioe.o(i.IOE_ClearGITPending)
    IOE_Config                               0x08001cd5   Thumb Code   298  stm3210c_eval_ioe.o(i.IOE_Config)
    IOE_FnctCmd                              0x08001e05   Thumb Code    36  stm3210c_eval_ioe.o(i.IOE_FnctCmd)
    IOE_GITCmd                               0x08001e29   Thumb Code    32  stm3210c_eval_ioe.o(i.IOE_GITCmd)
    IOE_GITConfig                            0x08001e49   Thumb Code    36  stm3210c_eval_ioe.o(i.IOE_GITConfig)
    IOE_GetGITStatus                         0x08001e6d   Thumb Code    32  stm3210c_eval_ioe.o(i.IOE_GetGITStatus)
    IOE_IOAFConfig                           0x08001ec5   Thumb Code    36  stm3210c_eval_ioe.o(i.IOE_IOAFConfig)
    IOE_IOEdgeConfig                         0x08001ee9   Thumb Code    70  stm3210c_eval_ioe.o(i.IOE_IOEdgeConfig)
    IOE_IOITConfig                           0x08001f2f   Thumb Code    36  stm3210c_eval_ioe.o(i.IOE_IOITConfig)
    IOE_IOPinConfig                          0x08001f53   Thumb Code    36  stm3210c_eval_ioe.o(i.IOE_IOPinConfig)
    IOE_ITConfig                             0x08001f79   Thumb Code   254  stm3210c_eval_ioe.o(i.IOE_ITConfig)
    IOE_ITOutConfig                          0x0800207d   Thumb Code    60  stm3210c_eval_ioe.o(i.IOE_ITOutConfig)
    IOE_IsOperational                        0x080020b9   Thumb Code    32  stm3210c_eval_ioe.o(i.IOE_IsOperational)
    IOE_ReadID                               0x080020dd   Thumb Code    30  stm3210c_eval_ioe.o(i.IOE_ReadID)
    IOE_Reset                                0x080020fb   Thumb Code    32  stm3210c_eval_ioe.o(i.IOE_Reset)
    IOE_TS_Config                            0x0800211d   Thumb Code   182  stm3210c_eval_ioe.o(i.IOE_TS_Config)
    IOE_TS_GetState                          0x080021d9   Thumb Code   172  stm3210c_eval_ioe.o(i.IOE_TS_GetState)
    IOE_TempSens_Config                      0x08002289   Thumb Code    68  stm3210c_eval_ioe.o(i.IOE_TempSens_Config)
    IOE_WriteIOPin                           0x080022cd   Thumb Code    42  stm3210c_eval_ioe.o(i.IOE_WriteIOPin)
    LCD_Clear                                0x080022f9   Thumb Code    50  stm3210c_eval_lcd.o(i.LCD_Clear)
    LCD_CtrlLinesConfig                      0x08002331   Thumb Code    38  stm3210c_eval_lcd.o(i.LCD_CtrlLinesConfig)
    LCD_CtrlLinesWrite                       0x0800235d   Thumb Code     4  stm3210c_eval_lcd.o(i.LCD_CtrlLinesWrite)
    LCD_DisplayChar                          0x08002361   Thumb Code    18  stm3210c_eval_lcd.o(i.LCD_DisplayChar)
    LCD_DisplayStringLine                    0x08002379   Thumb Code    46  stm3210c_eval_lcd.o(i.LCD_DisplayStringLine)
    LCD_DrawChar                             0x080023a9   Thumb Code    92  stm3210c_eval_lcd.o(i.LCD_DrawChar)
    LCD_DrawLine                             0x0800240d   Thumb Code    86  stm3210c_eval_lcd.o(i.LCD_DrawLine)
    LCD_DrawRect                             0x0800246d   Thumb Code    66  stm3210c_eval_lcd.o(i.LCD_DrawRect)
    LCD_SPIConfig                            0x080024b1   Thumb Code   128  stm3210c_eval_lcd.o(i.LCD_SPIConfig)
    LCD_SetBackColor                         0x0800253d   Thumb Code    12  stm3210c_eval_lcd.o(i.LCD_SetBackColor)
    LCD_SetCursor                            0x0800254d   Thumb Code    24  stm3210c_eval_lcd.o(i.LCD_SetCursor)
    LCD_SetTextColor                         0x08002565   Thumb Code    12  stm3210c_eval_lcd.o(i.LCD_SetTextColor)
    LCD_Setup                                0x08002575   Thumb Code   518  stm3210c_eval_lcd.o(i.LCD_Setup)
    LCD_WriteRAM                             0x0800277d   Thumb Code    48  stm3210c_eval_lcd.o(i.LCD_WriteRAM)
    LCD_WriteRAMWord                         0x080027b1   Thumb Code    28  stm3210c_eval_lcd.o(i.LCD_WriteRAMWord)
    LCD_WriteRAM_Prepare                     0x080027d1   Thumb Code    18  stm3210c_eval_lcd.o(i.LCD_WriteRAM_Prepare)
    LCD_WriteReg                             0x080027e5   Thumb Code    70  stm3210c_eval_lcd.o(i.LCD_WriteReg)
    LCD_WriteRegIndex                        0x08002835   Thumb Code    66  stm3210c_eval_lcd.o(i.LCD_WriteRegIndex)
    LCD_nCS_StartByte                        0x08002881   Thumb Code    38  stm3210c_eval_lcd.o(i.LCD_nCS_StartByte)
    LwIP_Init                                0x080028b1   Thumb Code   180  netconf.o(i.LwIP_Init)
    LwIP_Periodic_Handle                     0x08002a0d   Thumb Code    90  netconf.o(i.LwIP_Periodic_Handle)
    LwIP_Pkt_Handle                          0x08002a6d   Thumb Code     6  netconf.o(i.LwIP_Pkt_Handle)
    MemManage_Handler                        0x08002a79   Thumb Code     2  stm32f10x_it.o(i.MemManage_Handler)
    NMI_Handler                              0x08002a7b   Thumb Code     2  stm32f10x_it.o(i.NMI_Handler)
    NVIC_Configuration                       0x08002a7d   Thumb Code    52  stm32f107.o(i.NVIC_Configuration)
    NVIC_Init                                0x08002ab1   Thumb Code    94  misc.o(i.NVIC_Init)
    NVIC_PriorityGroupConfig                 0x08002b15   Thumb Code    10  misc.o(i.NVIC_PriorityGroupConfig)
    NVIC_SetVectorTable                      0x08002b49   Thumb Code    12  misc.o(i.NVIC_SetVectorTable)
    PendSV_Handler                           0x08002b5d   Thumb Code     2  stm32f10x_it.o(i.PendSV_Handler)
    RCC_AHBPeriphClockCmd                    0x08002b61   Thumb Code    18  stm32f10x_rcc.o(i.RCC_AHBPeriphClockCmd)
    RCC_AHBPeriphResetCmd                    0x08002b79   Thumb Code    18  stm32f10x_rcc.o(i.RCC_AHBPeriphResetCmd)
    RCC_APB1PeriphClockCmd                   0x08002b91   Thumb Code    18  stm32f10x_rcc.o(i.RCC_APB1PeriphClockCmd)
    RCC_APB1PeriphResetCmd                   0x08002ba9   Thumb Code    18  stm32f10x_rcc.o(i.RCC_APB1PeriphResetCmd)
    RCC_APB2PeriphClockCmd                   0x08002bc1   Thumb Code    18  stm32f10x_rcc.o(i.RCC_APB2PeriphClockCmd)
    RCC_APB2PeriphResetCmd                   0x08002bd9   Thumb Code    18  stm32f10x_rcc.o(i.RCC_APB2PeriphResetCmd)
    RCC_GetClocksFreq                        0x08002bf1   Thumb Code   180  stm32f10x_rcc.o(i.RCC_GetClocksFreq)
    RCC_GetFlagStatus                        0x08002cb9   Thumb Code    42  stm32f10x_rcc.o(i.RCC_GetFlagStatus)
    RCC_MCOConfig                            0x08002ce9   Thumb Code     6  stm32f10x_rcc.o(i.RCC_MCOConfig)
    RCC_PLL3Cmd                              0x08002cf5   Thumb Code     6  stm32f10x_rcc.o(i.RCC_PLL3Cmd)
    RCC_PLL3Config                           0x08002d01   Thumb Code    14  stm32f10x_rcc.o(i.RCC_PLL3Config)
    SPI_Cmd                                  0x08002d15   Thumb Code    20  stm32f10x_spi.o(i.SPI_Cmd)
    SPI_I2S_DeInit                           0x08002dcd   Thumb Code    72  stm32f10x_spi.o(i.SPI_I2S_DeInit)
    SPI_I2S_GetFlagStatus                    0x08002e21   Thumb Code    14  stm32f10x_spi.o(i.SPI_I2S_GetFlagStatus)
    SPI_I2S_ReceiveData                      0x08002e2f   Thumb Code     4  stm32f10x_spi.o(i.SPI_I2S_ReceiveData)
    SPI_I2S_SendData                         0x08002e33   Thumb Code     4  stm32f10x_spi.o(i.SPI_I2S_SendData)
    SPI_Init                                 0x08002e37   Thumb Code    56  stm32f10x_spi.o(i.SPI_Init)
    STM3210C_LCD_Init                        0x08002e6f   Thumb Code     4  stm3210c_eval_lcd.o(i.STM3210C_LCD_Init)
    STM_EVAL_LEDInit                         0x08002e75   Thumb Code    54  stm32_eval.o(i.STM_EVAL_LEDInit)
    STM_EVAL_LEDOff                          0x08002eb5   Thumb Code    16  stm32_eval.o(i.STM_EVAL_LEDOff)
    STM_EVAL_LEDOn                           0x08002ecd   Thumb Code    16  stm32_eval.o(i.STM_EVAL_LEDOn)
    STM_EVAL_LEDToggle                       0x08002ee5   Thumb Code    20  stm32_eval.o(i.STM_EVAL_LEDToggle)
    STM_EVAL_PBGetState                      0x08002f01   Thumb Code    16  stm32_eval.o(i.STM_EVAL_PBGetState)
    STM_EVAL_PBInit                          0x08002f19   Thumb Code   148  stm32_eval.o(i.STM_EVAL_PBInit)
    SVC_Handler                              0x08002fb5   Thumb Code     2  stm32f10x_it.o(i.SVC_Handler)
    Set_MAC_Address                          0x08003089   Thumb Code    34  ethernetif.o(i.Set_MAC_Address)
    SysTick_Handler                          0x080030b1   Thumb Code     4  stm32f10x_it.o(i.SysTick_Handler)
    SystemInit                               0x080030b5   Thumb Code    64  system_stm32f10x.o(i.SystemInit)
    System_Periodic_Handle                   0x08003101   Thumb Code    20  main.o(i.System_Periodic_Handle)
    System_Setup                             0x08003119   Thumb Code   228  stm32f107.o(i.System_Setup)
    Time_Update                              0x0800325d   Thumb Code    10  main.o(i.Time_Update)
    UsageFault_Handler                       0x0800326d   Thumb Code     2  stm32f10x_it.o(i.UsageFault_Handler)
    client_init                              0x08003271   Thumb Code    72  client.o(i.client_init)
    dhcp_arp_reply                           0x0800332d   Thumb Code    30  dhcp.o(i.dhcp_arp_reply)
    dhcp_coarse_tmr                          0x08003455   Thumb Code    90  dhcp.o(i.dhcp_coarse_tmr)
    dhcp_fine_tmr                            0x08003741   Thumb Code    46  dhcp.o(i.dhcp_fine_tmr)
    dhcp_release                             0x08003b91   Thumb Code   188  dhcp.o(i.dhcp_release)
    dhcp_renew                               0x08003c51   Thumb Code   156  dhcp.o(i.dhcp_renew)
    dhcp_start                               0x08003e01   Thumb Code   156  dhcp.o(i.dhcp_start)
    dhcp_stop                                0x08003ea5   Thumb Code    62  dhcp.o(i.dhcp_stop)
    dir_addCluster                           0x08003fc7   Thumb Code   102  dir.o(i.dir_addCluster)
    dir_createDefaultEntry                   0x0800402d   Thumb Code    38  dir.o(i.dir_createDefaultEntry)
    dir_createDirectoryEntry                 0x08004053   Thumb Code    48  dir.o(i.dir_createDirectoryEntry)
    dir_findFileinBuf                        0x08004083   Thumb Code    88  dir.o(i.dir_findFileinBuf)
    dir_findFreeEntryinBuf                   0x080040db   Thumb Code    64  dir.o(i.dir_findFreeEntryinBuf)
    dir_findinBuf                            0x0800411b   Thumb Code    20  dir.o(i.dir_findinBuf)
    dir_findinCluster                        0x0800412f   Thumb Code   106  dir.o(i.dir_findinCluster)
    dir_findinDir                            0x08004199   Thumb Code    86  dir.o(i.dir_findinDir)
    dir_findinRootArea                       0x080041ef   Thumb Code   110  dir.o(i.dir_findinRootArea)
    dir_getFatFileName                       0x0800425d   Thumb Code    70  dir.o(i.dir_getFatFileName)
    dir_getFileStructure                     0x080042a3   Thumb Code    48  dir.o(i.dir_getFileStructure)
    dir_setFileSize                          0x080042d3   Thumb Code    38  dir.o(i.dir_setFileSize)
    dir_setFirstCluster                      0x080042f9   Thumb Code    48  dir.o(i.dir_setFirstCluster)
    dir_updateDirectoryEntry                 0x08004329   Thumb Code    50  dir.o(i.dir_updateDirectoryEntry)
    disc_initDisc                            0x0800435b   Thumb Code    10  disc.o(i.disc_initDisc)
    disc_loadMBR                             0x08004365   Thumb Code    60  disc.o(i.disc_loadMBR)
    efs_init                                 0x080043a1   Thumb Code   104  efs.o(i.efs_init)
    etharp_arp_input                         0x08004409   Thumb Code   218  etharp.o(i.etharp_arp_input)
    etharp_ip_input                          0x080044e3   Thumb Code    40  etharp.o(i.etharp_ip_input)
    etharp_output                            0x0800450d   Thumb Code   178  etharp.o(i.etharp_output)
    etharp_query                             0x080045c5   Thumb Code   256  etharp.o(i.etharp_query)
    etharp_request                           0x08004769   Thumb Code    32  etharp.o(i.etharp_request)
    etharp_tmr                               0x080047c5   Thumb Code    78  etharp.o(i.etharp_tmr)
    ethernet_input                           0x08004819   Thumb Code    84  etharp.o(i.ethernet_input)
    ethernetif_init                          0x0800486d   Thumb Code    56  ethernetif.o(i.ethernetif_init)
    ethernetif_input                         0x080048ad   Thumb Code   116  ethernetif.o(i.ethernetif_input)
    ex_getPartitionField                     0x08004925   Thumb Code    60  extract.o(i.ex_getPartitionField)
    ex_getb16                                0x08004961   Thumb Code    14  extract.o(i.ex_getb16)
    ex_getb32                                0x0800496f   Thumb Code    24  extract.o(i.ex_getb32)
    fat_DiscToLogicCluster                   0x08004987   Thumb Code    56  fat.o(i.fat_DiscToLogicCluster)
    fat_LogicToDiscCluster                   0x080049bf   Thumb Code    82  fat.o(i.fat_LogicToDiscCluster)
    fat_allocClusterChain                    0x08004a11   Thumb Code   286  fat.o(i.fat_allocClusterChain)
    fat_countClustersInChain                 0x08004b2f   Thumb Code    48  fat.o(i.fat_countClustersInChain)
    fat_getNextClusterAddress                0x08004b5f   Thumb Code   156  fat.o(i.fat_getNextClusterAddress)
    fat_getNextClusterAddressWBuf            0x08004bfb   Thumb Code   120  fat.o(i.fat_getNextClusterAddressWBuf)
    fat_getNextClusterChain                  0x08004c73   Thumb Code   152  fat.o(i.fat_getNextClusterChain)
    fat_getSectorAddressFatEntry             0x08004d0b   Thumb Code    48  fat.o(i.fat_getSectorAddressFatEntry)
    fat_giveEocMarker                        0x08004d3b   Thumb Code    38  fat.o(i.fat_giveEocMarker)
    fat_isEocMarker                          0x08004d61   Thumb Code    52  fat.o(i.fat_isEocMarker)
    fat_setNextClusterAddress                0x08004d99   Thumb Code   222  fat.o(i.fat_setNextClusterAddress)
    fat_setNextClusterAddressWBuf            0x08004e77   Thumb Code   176  fat.o(i.fat_setNextClusterAddressWBuf)
    file_fclose                              0x08004f27   Thumb Code   102  file.o(i.file_fclose)
    file_fopen                               0x08004f8d   Thumb Code   414  file.o(i.file_fopen)
    file_fread                               0x0800512b   Thumb Code   204  file.o(i.file_fread)
    file_fwrite                              0x080051f7   Thumb Code   266  file.o(i.file_fwrite)
    file_getAttr                             0x08005301   Thumb Code    12  file.o(i.file_getAttr)
    file_initFile                            0x0800530d   Thumb Code    44  file.o(i.file_initFile)
    file_normalToFatName                     0x08005339   Thumb Code   134  file.o(i.file_normalToFatName)
    file_read                                0x080053bf   Thumb Code    24  file.o(i.file_read)
    file_requiredCluster                     0x080053d7   Thumb Code    84  file.o(i.file_requiredCluster)
    file_setAttr                             0x0800542b   Thumb Code    22  file.o(i.file_setAttr)
    file_setpos                              0x08005441   Thumb Code    18  file.o(i.file_setpos)
    file_validateChar                        0x08005453   Thumb Code    62  file.o(i.file_validateChar)
    file_write                               0x08005491   Thumb Code    24  file.o(i.file_write)
    fs_clearCluster                          0x08005603   Thumb Code    66  fs.o(i.fs_clearCluster)
    fs_clusterToSector                       0x08005645   Thumb Code    36  fs.o(i.fs_clusterToSector)
    fs_countDataSectors                      0x08005669   Thumb Code    76  fs.o(i.fs_countDataSectors)
    fs_determineFatType                      0x080056b5   Thumb Code    42  fs.o(i.fs_determineFatType)
    fs_findFile                              0x080056df   Thumb Code   182  fs.o(i.fs_findFile)
    fs_findFirstSectorRootDir                0x08005795   Thumb Code    36  fs.o(i.fs_findFirstSectorRootDir)
    fs_findFreeFile                          0x080057b9   Thumb Code    92  fs.o(i.fs_findFreeFile)
    fs_flushFs                               0x08005815   Thumb Code    10  fs.o(i.fs_flushFs)
    fs_getFirstClusterRootDir                0x0800581f   Thumb Code    16  fs.o(i.fs_getFirstClusterRootDir)
    fs_getLastCluster                        0x0800582f   Thumb Code    56  fs.o(i.fs_getLastCluster)
    fs_getNextFreeCluster                    0x08005867   Thumb Code    36  fs.o(i.fs_getNextFreeCluster)
    fs_giveFreeClusterHint                   0x0800588b   Thumb Code     4  fs.o(i.fs_giveFreeClusterHint)
    fs_hasTimeSupport                        0x0800588f   Thumb Code     4  time.o(i.fs_hasTimeSupport)
    fs_initClusterChain                      0x08005893   Thumb Code    16  fs.o(i.fs_initClusterChain)
    fs_initCurrentDir                        0x080058a3   Thumb Code    12  fs.o(i.fs_initCurrentDir)
    fs_initFs                                0x080058af   Thumb Code    72  fs.o(i.fs_initFs)
    fs_isValidFat                            0x080058f7   Thumb Code    46  fs.o(i.fs_isValidFat)
    fs_loadVolumeId                          0x08005925   Thumb Code   116  fs.o(i.fs_loadVolumeId)
    fs_open                                  0x08005999   Thumb Code    42  httpd.o(i.fs_open)
    fs_setFirstClusterInDirEntry             0x080059c9   Thumb Code     8  fs.o(i.fs_setFirstClusterInDirEntry)
    fs_umount                                0x080059d1   Thumb Code     4  fs.o(i.fs_umount)
    fs_verifySanity                          0x080059d5   Thumb Code   148  fs.o(i.fs_verifySanity)
    htonl                                    0x08005a69   Thumb Code     4  inet.o(i.htonl)
    htons                                    0x08005a6d   Thumb Code     4  inet.o(i.htons)
    httpd_init                               0x08005d15   Thumb Code    34  httpd.o(i.httpd_init)
    icmp_dest_unreach                        0x08005d41   Thumb Code     8  icmp.o(i.icmp_dest_unreach)
    icmp_input                               0x08005d49   Thumb Code   276  icmp.o(i.icmp_input)
    icmp_time_exceeded                       0x08005ec3   Thumb Code     8  icmp.o(i.icmp_time_exceeded)
    if_initInterface                         0x08005ecb   Thumb Code    66  sd_stm32.o(i.if_initInterface)
    if_readBuf                               0x08005f0d   Thumb Code     8  sd_stm32.o(i.if_readBuf)
    if_spiInit                               0x08005f15   Thumb Code    54  sd_stm32.o(i.if_spiInit)
    if_spiSend                               0x08005f55   Thumb Code    56  sd_stm32.o(i.if_spiSend)
    if_writeBuf                              0x08005f95   Thumb Code     4  sd_stm32.o(i.if_writeBuf)
    inet_chksum                              0x08005f99   Thumb Code    12  inet_chksum.o(i.inet_chksum)
    inet_chksum_pbuf                         0x08005fa5   Thumb Code    72  inet_chksum.o(i.inet_chksum_pbuf)
    ioman_decUseCnt                          0x08005fed   Thumb Code    26  ioman.o(i.ioman_decUseCnt)
    ioman_directSectorRead                   0x08006007   Thumb Code    96  ioman.o(i.ioman_directSectorRead)
    ioman_directSectorWrite                  0x08006067   Thumb Code   144  ioman.o(i.ioman_directSectorWrite)
    ioman_findFreeSpot                       0x080060f7   Thumb Code    40  ioman.o(i.ioman_findFreeSpot)
    ioman_findOverallocableSpot              0x0800611f   Thumb Code   112  ioman.o(i.ioman_findOverallocableSpot)
    ioman_findSectorInCache                  0x0800618f   Thumb Code    52  ioman.o(i.ioman_findSectorInCache)
    ioman_findUnusedSpot                     0x080061c3   Thumb Code   124  ioman.o(i.ioman_findUnusedSpot)
    ioman_flushRange                         0x0800623f   Thumb Code    96  ioman.o(i.ioman_flushRange)
    ioman_flushSector                        0x0800629f   Thumb Code    90  ioman.o(i.ioman_flushSector)
    ioman_getAttr                            0x080062f9   Thumb Code    26  ioman.o(i.ioman_getAttr)
    ioman_getBp                              0x08006313   Thumb Code    40  ioman.o(i.ioman_getBp)
    ioman_getPtr                             0x0800633b   Thumb Code    22  ioman.o(i.ioman_getPtr)
    ioman_getRefCnt                          0x08006351   Thumb Code    20  ioman.o(i.ioman_getRefCnt)
    ioman_getSector                          0x08006365   Thumb Code   216  ioman.o(i.ioman_getSector)
    ioman_getUseCnt                          0x0800643d   Thumb Code    20  ioman.o(i.ioman_getUseCnt)
    ioman_incRefCnt                          0x08006451   Thumb Code    26  ioman.o(i.ioman_incRefCnt)
    ioman_incUseCnt                          0x0800646b   Thumb Code    26  ioman.o(i.ioman_incUseCnt)
    ioman_init                               0x08006485   Thumb Code    24  ioman.o(i.ioman_init)
    ioman_pop                                0x0800649d   Thumb Code    70  ioman.o(i.ioman_pop)
    ioman_push                               0x080064e3   Thumb Code    70  ioman.o(i.ioman_push)
    ioman_putSectorInCache                   0x08006529   Thumb Code    70  ioman.o(i.ioman_putSectorInCache)
    ioman_readSector                         0x0800656f   Thumb Code    28  ioman.o(i.ioman_readSector)
    ioman_releaseSector                      0x0800658b   Thumb Code    80  ioman.o(i.ioman_releaseSector)
    ioman_reset                              0x080065db   Thumb Code    94  ioman.o(i.ioman_reset)
    ioman_resetCacheItem                     0x08006639   Thumb Code    30  ioman.o(i.ioman_resetCacheItem)
    ioman_setAttr                            0x08006657   Thumb Code    34  ioman.o(i.ioman_setAttr)
    ioman_writeSector                        0x08006679   Thumb Code    32  ioman.o(i.ioman_writeSector)
    ip_addr_isbroadcast                      0x08006699   Thumb Code    48  ip_addr.o(i.ip_addr_isbroadcast)
    ip_frag                                  0x080066c9   Thumb Code   298  ip_frag.o(i.ip_frag)
    ip_input                                 0x080067f9   Thumb Code   394  ip.o(i.ip_input)
    ip_output                                0x0800698d   Thumb Code    52  ip.o(i.ip_output)
    ip_output_if                             0x080069c1   Thumb Code   200  ip.o(i.ip_output_if)
    ip_reass                                 0x08006a8d   Thumb Code   428  ip_frag.o(i.ip_reass)
    ip_route                                 0x08006e35   Thumb Code    62  ip.o(i.ip_route)
    ls_openDir                               0x08006f31   Thumb Code    66  ls.o(i.ls_openDir)
    main                                     0x08006faf   Thumb Code    26  main.o(i.main)
    memClr                                   0x08006fc9   Thumb Code    18  plibc.o(i.memClr)
    memCpy                                   0x08006fdb   Thumb Code    24  plibc.o(i.memCpy)
    mem_calloc                               0x08006ff3   Thumb Code    26  mem.o(i.mem_calloc)
    mem_free                                 0x0800700d   Thumb Code    40  mem.o(i.mem_free)
    mem_init                                 0x08007039   Thumb Code    44  mem.o(i.mem_init)
    mem_malloc                               0x0800706d   Thumb Code   162  mem.o(i.mem_malloc)
    mem_realloc                              0x08007115   Thumb Code   190  mem.o(i.mem_realloc)
    memp_free                                0x080071d9   Thumb Code    18  memp.o(i.memp_free)
    memp_init                                0x080071f1   Thumb Code    78  memp.o(i.memp_init)
    memp_malloc                              0x08007249   Thumb Code    28  memp.o(i.memp_malloc)
    netif_add                                0x08007269   Thumb Code    70  netif.o(i.netif_add)
    netif_is_up                              0x080072b5   Thumb Code    10  netif.o(i.netif_is_up)
    netif_set_addr                           0x080072bf   Thumb Code    32  netif.o(i.netif_set_addr)
    netif_set_default                        0x080072e1   Thumb Code     6  netif.o(i.netif_set_default)
    netif_set_down                           0x080072ed   Thumb Code    18  netif.o(i.netif_set_down)
    netif_set_gw                             0x080072ff   Thumb Code     8  netif.o(i.netif_set_gw)
    netif_set_ipaddr                         0x08007309   Thumb Code    96  netif.o(i.netif_set_ipaddr)
    netif_set_netmask                        0x08007371   Thumb Code     8  netif.o(i.netif_set_netmask)
    netif_set_up                             0x08007379   Thumb Code    28  netif.o(i.netif_set_up)
    ntohl                                    0x08007395   Thumb Code     4  inet.o(i.ntohl)
    ntohs                                    0x08007399   Thumb Code     4  inet.o(i.ntohs)
    part_directSectorRead                    0x0800739d   Thumb Code    26  partition.o(i.part_directSectorRead)
    part_directSectorWrite                   0x080073b7   Thumb Code    26  partition.o(i.part_directSectorWrite)
    part_flushPart                           0x080073d1   Thumb Code    38  partition.o(i.part_flushPart)
    part_getRealLBA                          0x080073f7   Thumb Code    18  partition.o(i.part_getRealLBA)
    part_getSect                             0x08007409   Thumb Code    26  partition.o(i.part_getSect)
    part_initPartition                       0x08007423   Thumb Code    40  partition.o(i.part_initPartition)
    part_isFatPart                           0x0800744b   Thumb Code    32  partition.o(i.part_isFatPart)
    part_relSect                             0x0800746b   Thumb Code     8  partition.o(i.part_relSect)
    pbuf_alloc                               0x08007473   Thumb Code   268  pbuf.o(i.pbuf_alloc)
    pbuf_cat                                 0x0800757f   Thumb Code    40  pbuf.o(i.pbuf_cat)
    pbuf_chain                               0x080075a7   Thumb Code    18  pbuf.o(i.pbuf_chain)
    pbuf_clen                                0x080075b9   Thumb Code    18  pbuf.o(i.pbuf_clen)
    pbuf_copy                                0x080075cb   Thumb Code   144  pbuf.o(i.pbuf_copy)
    pbuf_copy_partial                        0x0800765b   Thumb Code   104  pbuf.o(i.pbuf_copy_partial)
    pbuf_free                                0x080076c3   Thumb Code    68  pbuf.o(i.pbuf_free)
    pbuf_header                              0x08007707   Thumb Code    96  pbuf.o(i.pbuf_header)
    pbuf_realloc                             0x08007767   Thumb Code    78  pbuf.o(i.pbuf_realloc)
    pbuf_ref                                 0x080077b5   Thumb Code    12  pbuf.o(i.pbuf_ref)
    process_tftp_request                     0x08007815   Thumb Code   174  tftpserver.o(i.process_tftp_request)
    raw_input                                0x080078d9   Thumb Code   100  raw.o(i.raw_input)
    recv_callback_tftp                       0x08007941   Thumb Code    24  tftpserver.o(i.recv_callback_tftp)
    rrq_recv_callback                        0x08007959   Thumb Code    84  tftpserver.o(i.rrq_recv_callback)
    sd_Command                               0x080079ad   Thumb Code    80  sd.o(i.sd_Command)
    sd_Init                                  0x080079fd   Thumb Code    98  sd.o(i.sd_Init)
    sd_Resp16b                               0x08007a5f   Thumb Code    22  sd.o(i.sd_Resp16b)
    sd_Resp8b                                0x08007a75   Thumb Code    28  sd.o(i.sd_Resp8b)
    sd_State                                 0x08007a91   Thumb Code    40  sd.o(i.sd_State)
    sd_getDriveSize                          0x08007ab9   Thumb Code   150  sd.o(i.sd_getDriveSize)
    sd_readSector                            0x08007b4f   Thumb Code   112  sd.o(i.sd_readSector)
    sd_writeSector                           0x08007bbf   Thumb Code   100  sd.o(i.sd_writeSector)
    server_init                              0x08007c51   Thumb Code    30  server.o(i.server_init)
    strMatch                                 0x08007c79   Thumb Code    30  plibc.o(i.strMatch)
    tcp_abandon                              0x08007c99   Thumb Code   142  tcp.o(i.tcp_abandon)
    tcp_accept                               0x08007d2d   Thumb Code     4  tcp.o(i.tcp_accept)
    tcp_alloc                                0x08007d39   Thumb Code   248  tcp.o(i.tcp_alloc)
    tcp_arg                                  0x08007e3d   Thumb Code     4  tcp.o(i.tcp_arg)
    tcp_bind                                 0x08007e41   Thumb Code   182  tcp.o(i.tcp_bind)
    tcp_client_connected                     0x08007efd   Thumb Code   100  client.o(i.tcp_client_connected)
    tcp_close                                0x08007f7d   Thumb Code   156  tcp.o(i.tcp_close)
    tcp_connect                              0x0800801d   Thumb Code   190  tcp.o(i.tcp_connect)
    tcp_eff_send_mss                         0x080080e1   Thumb Code    32  tcp.o(i.tcp_eff_send_mss)
    tcp_enqueue                              0x08008101   Thumb Code   752  tcp_out.o(i.tcp_enqueue)
    tcp_err                                  0x080083f1   Thumb Code     6  tcp.o(i.tcp_err)
    tcp_fasttmr                              0x080083f9   Thumb Code    84  tcp.o(i.tcp_fasttmr)
    tcp_input                                0x08008451   Thumb Code   776  tcp_in.o(i.tcp_input)
    tcp_keepalive                            0x0800876d   Thumb Code    70  tcp_out.o(i.tcp_keepalive)
    tcp_led_control                          0x080087b5   Thumb Code    28  client.o(i.tcp_led_control)
    tcp_listen_with_backlog                  0x080088bd   Thumb Code   122  tcp.o(i.tcp_listen_with_backlog)
    tcp_new                                  0x08008941   Thumb Code     6  tcp.o(i.tcp_new)
    tcp_next_iss                             0x080089a9   Thumb Code    12  tcp.o(i.tcp_next_iss)
    tcp_output                               0x080089b9   Thumb Code   532  tcp_out.o(i.tcp_output)
    tcp_pcb_purge                            0x08008d79   Thumb Code    48  tcp.o(i.tcp_pcb_purge)
    tcp_pcb_remove                           0x08008da9   Thumb Code    90  tcp.o(i.tcp_pcb_remove)
    tcp_poll                                 0x08008e09   Thumb Code    10  tcp.o(i.tcp_poll)
    tcp_recv                                 0x080095c3   Thumb Code     6  tcp.o(i.tcp_recv)
    tcp_recved                               0x080095e5   Thumb Code    60  tcp.o(i.tcp_recved)
    tcp_rexmit                               0x08009621   Thumb Code    84  tcp_out.o(i.tcp_rexmit)
    tcp_rexmit_rto                           0x08009675   Thumb Code    46  tcp_out.o(i.tcp_rexmit_rto)
    tcp_rst                                  0x080096a3   Thumb Code   152  tcp_out.o(i.tcp_rst)
    tcp_seg_free                             0x0800973b   Thumb Code    32  tcp.o(i.tcp_seg_free)
    tcp_segs_free                            0x0800975b   Thumb Code    26  tcp.o(i.tcp_segs_free)
    tcp_send_ctrl                            0x08009775   Thumb Code    22  tcp_out.o(i.tcp_send_ctrl)
    tcp_sent                                 0x0800978b   Thumb Code     6  tcp.o(i.tcp_sent)
    tcp_server_accept                        0x08009791   Thumb Code    14  server.o(i.tcp_server_accept)
    tcp_slowtmr                              0x080097d9   Thumb Code   512  tcp.o(i.tcp_slowtmr)
    tcp_tmr                                  0x080099e9   Thumb Code    28  tcp.o(i.tcp_tmr)
    tcp_update_rcv_ann_wnd                   0x08009a09   Thumb Code    42  tcp.o(i.tcp_update_rcv_ann_wnd)
    tcp_write                                0x08009a33   Thumb Code    46  tcp_out.o(i.tcp_write)
    tcp_zero_window_probe                    0x08009a61   Thumb Code    82  tcp_out.o(i.tcp_zero_window_probe)
    tftp_cleanup_rd                          0x08009ab5   Thumb Code    52  tftpserver.o(i.tftp_cleanup_rd)
    tftp_cleanup_wr                          0x08009af9   Thumb Code    54  tftpserver.o(i.tftp_cleanup_wr)
    tftp_construct_error_message             0x08009b3d   Thumb Code    44  tftpserver.o(i.tftp_construct_error_message)
    tftp_decode_op                           0x08009b6d   Thumb Code     4  tftputils.o(i.tftp_decode_op)
    tftp_extract_block                       0x08009b71   Thumb Code     6  tftputils.o(i.tftp_extract_block)
    tftp_extract_filename                    0x08009b77   Thumb Code     6  tftputils.o(i.tftp_extract_filename)
    tftp_is_correct_ack                      0x08009b7d   Thumb Code    26  tftputils.o(i.tftp_is_correct_ack)
    tftp_process_read                        0x08009b99   Thumb Code   118  tftpserver.o(i.tftp_process_read)
    tftp_process_write                       0x08009c19   Thumb Code   118  tftpserver.o(i.tftp_process_write)
    tftp_send_ack_packet                     0x08009c99   Thumb Code    48  tftpserver.o(i.tftp_send_ack_packet)
    tftp_send_data_packet                    0x08009cc9   Thumb Code    70  tftpserver.o(i.tftp_send_data_packet)
    tftp_send_error_message                  0x08009d0f   Thumb Code    40  tftpserver.o(i.tftp_send_error_message)
    tftp_send_message                        0x08009d37   Thumb Code    70  tftpserver.o(i.tftp_send_message)
    tftp_send_next_block                     0x08009d7d   Thumb Code    52  tftpserver.o(i.tftp_send_next_block)
    tftp_set_block                           0x08009db5   Thumb Code    14  tftputils.o(i.tftp_set_block)
    tftp_set_data_message                    0x08009dc3   Thumb Code     6  tftputils.o(i.tftp_set_data_message)
    tftp_set_errorcode                       0x08009dc9   Thumb Code     8  tftputils.o(i.tftp_set_errorcode)
    tftp_set_errormsg                        0x08009dd1   Thumb Code     6  tftputils.o(i.tftp_set_errormsg)
    tftp_set_opcode                          0x08009dd7   Thumb Code     8  tftputils.o(i.tftp_set_opcode)
    tftpd_init                               0x08009de1   Thumb Code    42  tftpserver.o(i.tftpd_init)
    udp_bind                                 0x08009e19   Thumb Code    86  udp.o(i.udp_bind)
    udp_client_callback                      0x08009e75   Thumb Code   112  client.o(i.udp_client_callback)
    udp_connect                              0x08009f1d   Thumb Code    70  udp.o(i.udp_connect)
    udp_disconnect                           0x08009f69   Thumb Code    20  udp.o(i.udp_disconnect)
    udp_input                                0x08009f81   Thumb Code   350  udp.o(i.udp_input)
    udp_new                                  0x0800a0e5   Thumb Code    26  udp.o(i.udp_new)
    udp_recv                                 0x0800a0ff   Thumb Code     6  udp.o(i.udp_recv)
    udp_remove                               0x0800a105   Thumb Code    40  udp.o(i.udp_remove)
    udp_send                                 0x0800a131   Thumb Code     8  udp.o(i.udp_send)
    udp_sendto                               0x0800a139   Thumb Code    40  udp.o(i.udp_sendto)
    udp_sendto_if                            0x0800a161   Thumb Code   176  udp.o(i.udp_sendto_if)
    udp_server_callback                      0x0800a211   Thumb Code   176  server.o(i.udp_server_callback)
    wrq_recv_callback                        0x0800a39d   Thumb Code   174  tftpserver.o(i.wrq_recv_callback)
    COM_TX_PIN                               0x080120e8   Data           2  stm32_eval.o(.constdata)
    COM_RX_PIN                               0x080120ea   Data           2  stm32_eval.o(.constdata)
    COM_USART_CLK                            0x080120ec   Data           4  stm32_eval.o(.constdata)
    COM_POR_CLK                              0x080120f0   Data           4  stm32_eval.o(.constdata)
    BUTTON_PIN                               0x080120f4   Data           6  stm32_eval.o(.constdata)
    BUTTON_EXTI_LINE                         0x080120fa   Data           6  stm32_eval.o(.constdata)
    BUTTON_PORT_SOURCE                       0x08012100   Data           6  stm32_eval.o(.constdata)
    BUTTON_PIN_SOURCE                        0x08012106   Data           6  stm32_eval.o(.constdata)
    BUTTON_IRQn                              0x0801210c   Data           6  stm32_eval.o(.constdata)
    GPIO_PIN                                 0x08012112   Data           8  stm32_eval.o(.constdata)
    GPIO_CLK                                 0x0801211c   Data          16  stm32_eval.o(.constdata)
    BUTTON_CLK                               0x0801212c   Data          12  stm32_eval.o(.constdata)
    ASCII_Table                              0x08012138   Data        4560  stm3210c_eval_lcd.o(.constdata)
    tcp_persist_backoff                      0x08013308   Data           7  tcp.o(.constdata)
    tcp_backoff                              0x0801330f   Data          13  tcp.o(.constdata)
    ip_addr_any                              0x08013340   Data           4  ip_addr.o(.constdata)
    ip_addr_broadcast                        0x08013344   Data           4  ip_addr.o(.constdata)
    ethbroadcast                             0x08013348   Data           6  etharp.o(.constdata)
    ethzero                                  0x0801334e   Data           6  etharp.o(.constdata)
    Region$$Table$$Base                      0x08013440   Number         0  anon$$obj.o(Region$$Table)
    Region$$Table$$Limit                     0x08013460   Number         0  anon$$obj.o(Region$$Table)
    LocalTime                                0x20000004   Data           4  main.o(.data)
    timingdelay                              0x20000008   Data           4  main.o(.data)
    LedToggle                                0x2000000c   Data           1  netconf.o(.data)
    Server                                   0x2000000d   Data           1  netconf.o(.data)
    TCPTimer                                 0x20000010   Data           4  netconf.o(.data)
    ARPTimer                                 0x20000014   Data           4  netconf.o(.data)
    DHCPfineTimer                            0x20000018   Data           4  netconf.o(.data)
    DHCPcoarseTimer                          0x2000001c   Data           4  netconf.o(.data)
    DisplayTimer                             0x20000024   Data           4  netconf.o(.data)
    data_STM32F107ADC_html                   0x20000028   Data        4601  httpd.o(.data)
    file_STM32F107ADC_html                   0x20001224   Data          16  httpd.o(.data)
    UDPpcb                                   0x20001234   Data           4  tftpserver.o(.data)
    tftp_errorcode_string                    0x20001238   Data          32  tftpserver.o(.data)
    DMATxDescToSet                           0x20001270   Data           4  stm32_eth.o(.data)
    DMARxDescToGet                           0x20001274   Data           4  stm32_eth.o(.data)
    DMAPTPTxDescToSet                        0x20001278   Data           4  stm32_eth.o(.data)
    DMAPTPRxDescToGet                        0x2000127c   Data           4  stm32_eth.o(.data)
    TimeOut                                  0x20001280   Data           4  stm3210c_eval_ioe.o(.data)
    TS_State                                 0x20001290   Data           8  stm3210c_eval_ioe.o(.data)
    COM_USART                                0x20001298   Data           4  stm32_eval.o(.data)
    COM_PORT                                 0x2000129c   Data           4  stm32_eval.o(.data)
    GPIO_PORT                                0x200012a0   Data          16  stm32_eval.o(.data)
    BUTTON_PORT                              0x200012b0   Data          12  stm32_eval.o(.data)
    MACaddr                                  0x200012c0   Data           6  ethernetif.o(.data)
    tcp_ticks                                0x200012d0   Data           4  tcp.o(.data)
    tcp_bound_pcbs                           0x200012d4   Data           4  tcp.o(.data)
    tcp_listen_pcbs                          0x200012d8   Data           4  tcp.o(.data)
    tcp_active_pcbs                          0x200012dc   Data           4  tcp.o(.data)
    tcp_tw_pcbs                              0x200012e0   Data           4  tcp.o(.data)
    tcp_tmp_pcb                              0x200012e4   Data           4  tcp.o(.data)
    tcp_input_pcb                            0x20001300   Data           4  tcp_in.o(.data)
    udp_pcbs                                 0x20001304   Data           4  udp.o(.data)
    netif_list                               0x20001320   Data           4  netif.o(.data)
    netif_default                            0x20001324   Data           4  netif.o(.data)
    netif                                    0x20001344   Data          52  netconf.o(.bss)
    efs1                                     0x20001378   Data         692  tftpserver.o(.bss)
    efs2                                     0x2000162c   Data         692  tftpserver.o(.bss)
    list1                                    0x200018e0   Data          52  tftpserver.o(.bss)
    list2                                    0x20001914   Data          52  tftpserver.o(.bss)
    file_SD                                  0x20001948   Data          80  tftpserver.o(.bss)
    file_CR                                  0x20001998   Data          80  tftpserver.o(.bss)
    DMARxDscrTab                             0x200019e8   Data          64  ethernetif.o(.bss)
    DMATxDscrTab                             0x20001a28   Data          32  ethernetif.o(.bss)
    Rx_Buff                                  0x20001a48   Data        6080  ethernetif.o(.bss)
    Tx_Buff                                  0x20003208   Data        3040  ethernetif.o(.bss)
    __libspace_start                         0x2000db68   Data          96  libspace.o(.bss)
    __temporary_stack_top$libspace           0x2000dbc8   Data           0  libspace.o(.bss)



==============================================================================

Memory Map of the image

  Image Entry point : 0x08000151

  Load Region LR_IROM1 (Base: 0x08000000, Size: 0x000147a4, Max: 0x00040000, ABSOLUTE, COMPRESSED[0x00013b98])

    Execution Region ER_IROM1 (Base: 0x08000000, Size: 0x00013460, Max: 0x00040000, ABSOLUTE)

    Base Addr    Size         Type   Attr      Idx    E Section Name        Object

    0x08000000   0x00000150   Data   RO         6033    RESET               startup_stm32f10x_cl.o
    0x08000150   0x00000008   Code   RO         6088  * !!!main             c_w.l(__main.o)
    0x08000158   0x00000034   Code   RO         6255    !!!scatter          c_w.l(__scatter.o)
    0x0800018c   0x00000064   Code   RO         6253    !!dclz77c           c_w.l(__dclz77c.o)
    0x080001f0   0x0000001c   Code   RO         6257    !!handler_zi        c_w.l(__scatter_zi.o)
    0x0800020c   0x00000000   Code   RO         6069    .ARM.Collect$$_printf_percent$$00000000  c_w.l(_printf_percent.o)
    0x0800020c   0x00000006   Code   RO         6068    .ARM.Collect$$_printf_percent$$00000009  c_w.l(_printf_d.o)
    0x08000212   0x00000004   Code   RO         6097    .ARM.Collect$$_printf_percent$$00000017  c_w.l(_printf_percent_end.o)
    0x08000216   0x00000002   Code   RO         6124    .ARM.Collect$$libinit$$00000000  c_w.l(libinit.o)
    0x08000218   0x00000000   Code   RO         6131    .ARM.Collect$$libinit$$00000002  c_w.l(libinit2.o)
    0x08000218   0x00000000   Code   RO         6133    .ARM.Collect$$libinit$$00000004  c_w.l(libinit2.o)
    0x08000218   0x00000000   Code   RO         6136    .ARM.Collect$$libinit$$0000000A  c_w.l(libinit2.o)
    0x08000218   0x00000000   Code   RO         6138    .ARM.Collect$$libinit$$0000000C  c_w.l(libinit2.o)
    0x08000218   0x00000000   Code   RO         6140    .ARM.Collect$$libinit$$0000000E  c_w.l(libinit2.o)
    0x08000218   0x00000000   Code   RO         6143    .ARM.Collect$$libinit$$00000011  c_w.l(libinit2.o)
    0x08000218   0x00000000   Code   RO         6145    .ARM.Collect$$libinit$$00000013  c_w.l(libinit2.o)
    0x08000218   0x00000000   Code   RO         6147    .ARM.Collect$$libinit$$00000015  c_w.l(libinit2.o)
    0x08000218   0x00000000   Code   RO         6149    .ARM.Collect$$libinit$$00000017  c_w.l(libinit2.o)
    0x08000218   0x00000000   Code   RO         6151    .ARM.Collect$$libinit$$00000019  c_w.l(libinit2.o)
    0x08000218   0x00000000   Code   RO         6153    .ARM.Collect$$libinit$$0000001B  c_w.l(libinit2.o)
    0x08000218   0x00000000   Code   RO         6155    .ARM.Collect$$libinit$$0000001D  c_w.l(libinit2.o)
    0x08000218   0x00000000   Code   RO         6157    .ARM.Collect$$libinit$$0000001F  c_w.l(libinit2.o)
    0x08000218   0x00000000   Code   RO         6159    .ARM.Collect$$libinit$$00000021  c_w.l(libinit2.o)
    0x08000218   0x00000000   Code   RO         6161    .ARM.Collect$$libinit$$00000023  c_w.l(libinit2.o)
    0x08000218   0x00000000   Code   RO         6163    .ARM.Collect$$libinit$$00000025  c_w.l(libinit2.o)
    0x08000218   0x00000000   Code   RO         6167    .ARM.Collect$$libinit$$0000002C  c_w.l(libinit2.o)
    0x08000218   0x00000000   Code   RO         6169    .ARM.Collect$$libinit$$0000002E  c_w.l(libinit2.o)
    0x08000218   0x00000000   Code   RO         6171    .ARM.Collect$$libinit$$00000030  c_w.l(libinit2.o)
    0x08000218   0x00000000   Code   RO         6173    .ARM.Collect$$libinit$$00000032  c_w.l(libinit2.o)
    0x08000218   0x00000002   Code   RO         6174    .ARM.Collect$$libinit$$00000033  c_w.l(libinit2.o)
    0x0800021a   0x00000002   Code   RO         6194    .ARM.Collect$$libshutdown$$00000000  c_w.l(libshutdown.o)
    0x0800021c   0x00000000   Code   RO         6208    .ARM.Collect$$libshutdown$$00000003  c_w.l(libshutdown2.o)
    0x0800021c   0x00000000   Code   RO         6211    .ARM.Collect$$libshutdown$$00000006  c_w.l(libshutdown2.o)
    0x0800021c   0x00000000   Code   RO         6214    .ARM.Collect$$libshutdown$$00000009  c_w.l(libshutdown2.o)
    0x0800021c   0x00000000   Code   RO         6216    .ARM.Collect$$libshutdown$$0000000B  c_w.l(libshutdown2.o)
    0x0800021c   0x00000000   Code   RO         6219    .ARM.Collect$$libshutdown$$0000000E  c_w.l(libshutdown2.o)
    0x0800021c   0x00000002   Code   RO         6220    .ARM.Collect$$libshutdown$$0000000F  c_w.l(libshutdown2.o)
    0x0800021e   0x00000000   Code   RO         6090    .ARM.Collect$$rtentry$$00000000  c_w.l(__rtentry.o)
    0x0800021e   0x00000000   Code   RO         6099    .ARM.Collect$$rtentry$$00000002  c_w.l(__rtentry2.o)
    0x0800021e   0x00000006   Code   RO         6111    .ARM.Collect$$rtentry$$00000004  c_w.l(__rtentry4.o)
    0x08000224   0x00000000   Code   RO         6101    .ARM.Collect$$rtentry$$00000009  c_w.l(__rtentry2.o)
    0x08000224   0x00000004   Code   RO         6102    .ARM.Collect$$rtentry$$0000000A  c_w.l(__rtentry2.o)
    0x08000228   0x00000000   Code   RO         6104    .ARM.Collect$$rtentry$$0000000C  c_w.l(__rtentry2.o)
    0x08000228   0x00000008   Code   RO         6105    .ARM.Collect$$rtentry$$0000000D  c_w.l(__rtentry2.o)
    0x08000230   0x00000002   Code   RO         6128    .ARM.Collect$$rtexit$$00000000  c_w.l(rtexit.o)
    0x08000232   0x00000000   Code   RO         6176    .ARM.Collect$$rtexit$$00000002  c_w.l(rtexit2.o)
    0x08000232   0x00000004   Code   RO         6177    .ARM.Collect$$rtexit$$00000003  c_w.l(rtexit2.o)
    0x08000236   0x00000006   Code   RO         6178    .ARM.Collect$$rtexit$$00000004  c_w.l(rtexit2.o)
    0x0800023c   0x00000038   Code   RO         6034    .text               startup_stm32f10x_cl.o
    0x08000274   0x00000028   Code   RO         6042    .text               c_w.l(noretval__2sprintf.o)
    0x0800029c   0x00000068   Code   RO         6044    .text               c_w.l(__printf.o)
    0x08000304   0x00000078   Code   RO         6046    .text               c_w.l(_printf_dec.o)
    0x0800037c   0x00000048   Code   RO         6070    .text               c_w.l(strcpy.o)
    0x080003c4   0x0000003e   Code   RO         6072    .text               c_w.l(strlen.o)
    0x08000402   0x00000096   Code   RO         6074    .text               c_w.l(strncmp.o)
    0x08000498   0x0000008a   Code   RO         6076    .text               c_w.l(rt_memcpy_v6.o)
    0x08000522   0x00000064   Code   RO         6078    .text               c_w.l(rt_memcpy_w.o)
    0x08000586   0x00000044   Code   RO         6080    .text               c_w.l(rt_memclr.o)
    0x080005ca   0x0000004e   Code   RO         6082    .text               c_w.l(rt_memclr_w.o)
    0x08000618   0x00000080   Code   RO         6084    .text               c_w.l(strcmpv7m.o)
    0x08000698   0x00000006   Code   RO         6086    .text               c_w.l(heapauxi.o)
    0x0800069e   0x000000b2   Code   RO         6091    .text               c_w.l(_printf_intcommon.o)
    0x08000750   0x00000030   Code   RO         6093    .text               c_w.l(_printf_char_common.o)
    0x08000780   0x0000000a   Code   RO         6095    .text               c_w.l(_sputc.o)
    0x0800078a   0x0000004a   Code   RO         6115    .text               c_w.l(sys_stackheap_outer.o)
    0x080007d4   0x0000000c   Code   RO         6117    .text               c_w.l(exit.o)
    0x080007e0   0x00000008   Code   RO         6125    .text               c_w.l(libspace.o)
    0x080007e8   0x0000000c   Code   RO         6186    .text               c_w.l(sys_exit.o)
    0x080007f4   0x00000002   Code   RO         6197    .text               c_w.l(use_no_semi.o)
    0x080007f6   0x00000000   Code   RO         6199    .text               c_w.l(indicate_semi.o)
    0x080007f6   0x00000014   Code   RO         1691    i.ADC_Cmd           stm32f10x_adc.o
    0x0800080a   0x00000002   PAD
    0x0800080c   0x0000004c   Code   RO          242    i.ADC_Configuration  stm32f107.o
    0x08000858   0x00000006   Code   RO         1700    i.ADC_GetConversionValue  stm32f10x_adc.o
    0x0800085e   0x00000002   PAD
    0x08000860   0x00000048   Code   RO         1709    i.ADC_Init          stm32f10x_adc.o
    0x080008a8   0x00000074   Code   RO         1713    i.ADC_RegularChannelConfig  stm32f10x_adc.o
    0x0800091c   0x00000014   Code   RO         1716    i.ADC_SoftwareStartConvCmd  stm32f10x_adc.o
    0x08000930   0x00000002   Code   RO            1    i.BusFault_Handler  stm32f10x_it.o
    0x08000932   0x00000002   Code   RO            2    i.DebugMon_Handler  stm32f10x_it.o
    0x08000934   0x00000014   Code   RO          146    i.Delay             main.o
    0x08000948   0x000002a8   Code   RO          286    i.Display_Periodic_Handle  netconf.o
    0x08000bf0   0x0000000c   Code   RO         2640    i.ETH_DMAClearITPendingBit  stm32_eth.o
    0x08000bfc   0x00000018   Code   RO         2641    i.ETH_DMAITConfig   stm32_eth.o
    0x08000c14   0x0000001c   Code   RO         2644    i.ETH_DMAReceptionCmd  stm32_eth.o
    0x08000c30   0x0000004c   Code   RO         2645    i.ETH_DMARxDescChainInit  stm32_eth.o
    0x08000c7c   0x00000012   Code   RO         2647    i.ETH_DMARxDescReceiveITConfig  stm32_eth.o
    0x08000c8e   0x00000002   PAD
    0x08000c90   0x0000001c   Code   RO         2650    i.ETH_DMATransmissionCmd  stm32_eth.o
    0x08000cac   0x00000048   Code   RO         2653    i.ETH_DMATxDescChainInit  stm32_eth.o
    0x08000cf4   0x00000008   Code   RO         2654    i.ETH_DMATxDescChecksumInsertionConfig  stm32_eth.o
    0x08000cfc   0x00000018   Code   RO         2662    i.ETH_DeInit        stm32_eth.o
    0x08000d14   0x00000012   Code   RO         2663    i.ETH_Delay         stm32_eth.o
    0x08000d26   0x00000002   PAD
    0x08000d28   0x00000010   Code   RO         2668    i.ETH_FlushTransmitFIFO  stm32_eth.o
    0x08000d38   0x0000000c   Code   RO         3654    i.ETH_GetCurrentTxBuffer  ethernetif.o
    0x08000d44   0x00000008   Code   RO         2679    i.ETH_GetDMARxDescFrameLength  stm32_eth.o
    0x08000d4c   0x00000024   Code   RO         2694    i.ETH_GetRxPktSize  stm32_eth.o
    0x08000d70   0x00000014   Code   RO         2695    i.ETH_GetSoftwareResetStatus  stm32_eth.o
    0x08000d84   0x00000022   Code   RO            3    i.ETH_IRQHandler    stm32f10x_it.o
    0x08000da6   0x00000002   PAD
    0x08000da8   0x00000208   Code   RO         2702    i.ETH_Init          stm32_eth.o
    0x08000fb0   0x0000001c   Code   RO         2705    i.ETH_MACAddressConfig  stm32_eth.o
    0x08000fcc   0x0000001c   Code   RO         2710    i.ETH_MACReceptionCmd  stm32_eth.o
    0x08000fe8   0x0000001c   Code   RO         2711    i.ETH_MACTransmissionCmd  stm32_eth.o
    0x08001004   0x00000058   Code   RO         2722    i.ETH_ReadPHYRegister  stm32_eth.o
    0x0800105c   0x00000050   Code   RO         3655    i.ETH_RxPkt_ChainMode  ethernetif.o
    0x080010ac   0x00000010   Code   RO         2733    i.ETH_SoftwareReset  stm32_eth.o
    0x080010bc   0x00000022   Code   RO         2734    i.ETH_Start         stm32_eth.o
    0x080010de   0x0000007c   Code   RO         2735    i.ETH_StructInit    stm32_eth.o
    0x0800115a   0x00000002   PAD
    0x0800115c   0x0000003c   Code   RO         3656    i.ETH_TxPkt_ChainMode  ethernetif.o
    0x08001198   0x00000054   Code   RO         2737    i.ETH_WritePHYRegister  stm32_eth.o
    0x080011ec   0x00000140   Code   RO            4    i.EXTI15_10_IRQHandler  stm32f10x_it.o
    0x0800132c   0x0000000c   Code   RO         1452    i.EXTI_ClearITPendingBit  stm32f10x_exti.o
    0x08001338   0x00000020   Code   RO         1456    i.EXTI_GetITStatus  stm32f10x_exti.o
    0x08001358   0x00000070   Code   RO         1457    i.EXTI_Init         stm32f10x_exti.o
    0x080013c8   0x00000094   Code   RO          243    i.Ethernet_Configuration  stm32f107.o
    0x0800145c   0x000000f8   Code   RO          244    i.GPIO_Configuration  stm32f107.o
    0x08001554   0x0000000c   Code   RO          941    i.GPIO_ETH_MediaInterfaceConfig  stm32f10x_gpio.o
    0x08001560   0x00000028   Code   RO          942    i.GPIO_EXTILineConfig  stm32f10x_gpio.o
    0x08001588   0x0000009c   Code   RO          945    i.GPIO_Init         stm32f10x_gpio.o
    0x08001624   0x00000048   Code   RO          947    i.GPIO_PinRemapConfig  stm32f10x_gpio.o
    0x0800166c   0x0000000e   Code   RO          949    i.GPIO_ReadInputDataBit  stm32f10x_gpio.o
    0x0800167a   0x00000004   Code   RO          952    i.GPIO_ResetBits    stm32f10x_gpio.o
    0x0800167e   0x00000004   Code   RO          953    i.GPIO_SetBits      stm32f10x_gpio.o
    0x08001682   0x0000000a   Code   RO          956    i.GPIO_WriteBit     stm32f10x_gpio.o
    0x0800168c   0x00000002   Code   RO            5    i.HardFault_Handler  stm32f10x_it.o
    0x0800168e   0x00000002   PAD
    0x08001690   0x00000058   Code   RO          358    i.HelloWorld_accept  helloworld.o
    0x080016e8   0x00000004   Code   RO          359    i.HelloWorld_conn_err  helloworld.o
    0x080016ec   0x0000002c   Code   RO          360    i.HelloWorld_init   helloworld.o
    0x08001718   0x000000ec   Code   RO          361    i.HelloWorld_recv   helloworld.o
    0x08001804   0x00000014   Code   RO         2441    i.I2C_AcknowledgeConfig  stm32f10x_i2c.o
    0x08001818   0x00000018   Code   RO         2443    i.I2C_CheckEvent    stm32f10x_i2c.o
    0x08001830   0x00000014   Code   RO         2446    i.I2C_Cmd           stm32f10x_i2c.o
    0x08001844   0x00000014   Code   RO         2453    i.I2C_GenerateSTART  stm32f10x_i2c.o
    0x08001858   0x00000014   Code   RO         2454    i.I2C_GenerateSTOP  stm32f10x_i2c.o
    0x0800186c   0x000000bc   Code   RO         2460    i.I2C_Init          stm32f10x_i2c.o
    0x08001928   0x00000154   Code   RO         3241    i.I2C_ReadDataBuffer  stm3210c_eval_ioe.o
    0x08001a7c   0x00000134   Code   RO         3242    i.I2C_ReadDeviceRegister  stm3210c_eval_ioe.o
    0x08001bb0   0x00000006   Code   RO         2464    i.I2C_ReceiveData   stm32f10x_i2c.o
    0x08001bb6   0x00000010   Code   RO         2466    i.I2C_Send7bitAddress  stm32f10x_i2c.o
    0x08001bc6   0x00000004   Code   RO         2467    i.I2C_SendData      stm32f10x_i2c.o
    0x08001bca   0x00000014   Code   RO         2468    i.I2C_SoftwareResetCmd  stm32f10x_i2c.o
    0x08001bde   0x00000002   PAD
    0x08001be0   0x000000e4   Code   RO         3243    i.I2C_WriteDeviceRegister  stm3210c_eval_ioe.o
    0x08001cc4   0x0000000e   Code   RO         3244    i.IOE_ClearGITPending  stm3210c_eval_ioe.o
    0x08001cd2   0x00000002   PAD
    0x08001cd4   0x00000130   Code   RO         3246    i.IOE_Config        stm3210c_eval_ioe.o
    0x08001e04   0x00000024   Code   RO         3247    i.IOE_FnctCmd       stm3210c_eval_ioe.o
    0x08001e28   0x00000020   Code   RO         3248    i.IOE_GITCmd        stm3210c_eval_ioe.o
    0x08001e48   0x00000024   Code   RO         3249    i.IOE_GITConfig     stm3210c_eval_ioe.o
    0x08001e6c   0x00000020   Code   RO         3250    i.IOE_GetGITStatus  stm3210c_eval_ioe.o
    0x08001e8c   0x00000038   Code   RO         3252    i.IOE_I2C_Config    stm3210c_eval_ioe.o
    0x08001ec4   0x00000024   Code   RO         3253    i.IOE_IOAFConfig    stm3210c_eval_ioe.o
    0x08001ee8   0x00000046   Code   RO         3254    i.IOE_IOEdgeConfig  stm3210c_eval_ioe.o
    0x08001f2e   0x00000024   Code   RO         3255    i.IOE_IOITConfig    stm3210c_eval_ioe.o
    0x08001f52   0x00000024   Code   RO         3256    i.IOE_IOPinConfig   stm3210c_eval_ioe.o
    0x08001f76   0x00000002   PAD
    0x08001f78   0x00000104   Code   RO         3257    i.IOE_ITConfig      stm3210c_eval_ioe.o
    0x0800207c   0x0000003c   Code   RO         3258    i.IOE_ITOutConfig   stm3210c_eval_ioe.o
    0x080020b8   0x00000024   Code   RO         3259    i.IOE_IsOperational  stm3210c_eval_ioe.o
    0x080020dc   0x0000001e   Code   RO         3261    i.IOE_ReadID        stm3210c_eval_ioe.o
    0x080020fa   0x00000020   Code   RO         3263    i.IOE_Reset         stm3210c_eval_ioe.o
    0x0800211a   0x00000002   PAD
    0x0800211c   0x000000bc   Code   RO         3264    i.IOE_TS_Config     stm3210c_eval_ioe.o
    0x080021d8   0x000000b0   Code   RO         3265    i.IOE_TS_GetState   stm3210c_eval_ioe.o
    0x08002288   0x00000044   Code   RO         3266    i.IOE_TempSens_Config  stm3210c_eval_ioe.o
    0x080022cc   0x0000002a   Code   RO         3268    i.IOE_WriteIOPin    stm3210c_eval_ioe.o
    0x080022f6   0x00000002   PAD
    0x080022f8   0x00000038   Code   RO         3469    i.LCD_Clear         stm3210c_eval_lcd.o
    0x08002330   0x0000002c   Code   RO         3471    i.LCD_CtrlLinesConfig  stm3210c_eval_lcd.o
    0x0800235c   0x00000004   Code   RO         3472    i.LCD_CtrlLinesWrite  stm3210c_eval_lcd.o
    0x08002360   0x00000018   Code   RO         3473    i.LCD_DisplayChar   stm3210c_eval_lcd.o
    0x08002378   0x0000002e   Code   RO         3476    i.LCD_DisplayStringLine  stm3210c_eval_lcd.o
    0x080023a6   0x00000002   PAD
    0x080023a8   0x00000064   Code   RO         3477    i.LCD_DrawChar      stm3210c_eval_lcd.o
    0x0800240c   0x00000060   Code   RO         3479    i.LCD_DrawLine      stm3210c_eval_lcd.o
    0x0800246c   0x00000042   Code   RO         3481    i.LCD_DrawRect      stm3210c_eval_lcd.o
    0x080024ae   0x00000002   PAD
    0x080024b0   0x0000008c   Code   RO         3484    i.LCD_SPIConfig     stm3210c_eval_lcd.o
    0x0800253c   0x00000010   Code   RO         3485    i.LCD_SetBackColor  stm3210c_eval_lcd.o
    0x0800254c   0x00000018   Code   RO         3486    i.LCD_SetCursor     stm3210c_eval_lcd.o
    0x08002564   0x00000010   Code   RO         3488    i.LCD_SetTextColor  stm3210c_eval_lcd.o
    0x08002574   0x00000206   Code   RO         3489    i.LCD_Setup         stm3210c_eval_lcd.o
    0x0800277a   0x00000002   PAD
    0x0800277c   0x00000034   Code   RO         3491    i.LCD_WriteRAM      stm3210c_eval_lcd.o
    0x080027b0   0x00000020   Code   RO         3492    i.LCD_WriteRAMWord  stm3210c_eval_lcd.o
    0x080027d0   0x00000012   Code   RO         3493    i.LCD_WriteRAM_Prepare  stm3210c_eval_lcd.o
    0x080027e2   0x00000002   PAD
    0x080027e4   0x00000050   Code   RO         3494    i.LCD_WriteReg      stm3210c_eval_lcd.o
    0x08002834   0x0000004c   Code   RO         3495    i.LCD_WriteRegIndex  stm3210c_eval_lcd.o
    0x08002880   0x00000030   Code   RO         3496    i.LCD_nCS_StartByte  stm3210c_eval_lcd.o
    0x080028b0   0x0000015c   Code   RO          287    i.LwIP_Init         netconf.o
    0x08002a0c   0x00000060   Code   RO          288    i.LwIP_Periodic_Handle  netconf.o
    0x08002a6c   0x0000000c   Code   RO          289    i.LwIP_Pkt_Handle   netconf.o
    0x08002a78   0x00000002   Code   RO            6    i.MemManage_Handler  stm32f10x_it.o
    0x08002a7a   0x00000002   Code   RO            7    i.NMI_Handler       stm32f10x_it.o
    0x08002a7c   0x00000034   Code   RO          245    i.NVIC_Configuration  stm32f107.o
    0x08002ab0   0x00000064   Code   RO         1649    i.NVIC_Init         misc.o
    0x08002b14   0x00000014   Code   RO         1650    i.NVIC_PriorityGroupConfig  misc.o
    0x08002b28   0x00000020   Code   RO          246    i.NVIC_SetPriority  stm32f107.o
    0x08002b48   0x00000014   Code   RO         1651    i.NVIC_SetVectorTable  misc.o
    0x08002b5c   0x00000002   Code   RO            8    i.PendSV_Handler    stm32f10x_it.o
    0x08002b5e   0x00000002   PAD
    0x08002b60   0x00000018   Code   RO         1054    i.RCC_AHBPeriphClockCmd  stm32f10x_rcc.o
    0x08002b78   0x00000018   Code   RO         1055    i.RCC_AHBPeriphResetCmd  stm32f10x_rcc.o
    0x08002b90   0x00000018   Code   RO         1056    i.RCC_APB1PeriphClockCmd  stm32f10x_rcc.o
    0x08002ba8   0x00000018   Code   RO         1057    i.RCC_APB1PeriphResetCmd  stm32f10x_rcc.o
    0x08002bc0   0x00000018   Code   RO         1058    i.RCC_APB2PeriphClockCmd  stm32f10x_rcc.o
    0x08002bd8   0x00000018   Code   RO         1059    i.RCC_APB2PeriphResetCmd  stm32f10x_rcc.o
    0x08002bf0   0x000000c8   Code   RO         1066    i.RCC_GetClocksFreq  stm32f10x_rcc.o
    0x08002cb8   0x00000030   Code   RO         1067    i.RCC_GetFlagStatus  stm32f10x_rcc.o
    0x08002ce8   0x0000000c   Code   RO         1078    i.RCC_MCOConfig     stm32f10x_rcc.o
    0x08002cf4   0x0000000c   Code   RO         1084    i.RCC_PLL3Cmd       stm32f10x_rcc.o
    0x08002d00   0x00000014   Code   RO         1085    i.RCC_PLL3Config    stm32f10x_rcc.o
    0x08002d14   0x00000014   Code   RO         1312    i.SPI_Cmd           stm32f10x_spi.o
    0x08002d28   0x000000a4   Code   RO         5943    i.SPI_Config        sd_stm32.o
    0x08002dcc   0x00000054   Code   RO         1319    i.SPI_I2S_DeInit    stm32f10x_spi.o
    0x08002e20   0x0000000e   Code   RO         1320    i.SPI_I2S_GetFlagStatus  stm32f10x_spi.o
    0x08002e2e   0x00000004   Code   RO         1323    i.SPI_I2S_ReceiveData  stm32f10x_spi.o
    0x08002e32   0x00000004   Code   RO         1324    i.SPI_I2S_SendData  stm32f10x_spi.o
    0x08002e36   0x00000038   Code   RO         1325    i.SPI_Init          stm32f10x_spi.o
    0x08002e6e   0x00000004   Code   RO         3497    i.STM3210C_LCD_Init  stm3210c_eval_lcd.o
    0x08002e72   0x00000002   PAD
    0x08002e74   0x00000040   Code   RO         3418    i.STM_EVAL_LEDInit  stm32_eval.o
    0x08002eb4   0x00000018   Code   RO         3419    i.STM_EVAL_LEDOff   stm32_eval.o
    0x08002ecc   0x00000018   Code   RO         3420    i.STM_EVAL_LEDOn    stm32_eval.o
    0x08002ee4   0x0000001c   Code   RO         3421    i.STM_EVAL_LEDToggle  stm32_eval.o
    0x08002f00   0x00000018   Code   RO         3422    i.STM_EVAL_PBGetState  stm32_eval.o
    0x08002f18   0x0000009c   Code   RO         3423    i.STM_EVAL_PBInit   stm32_eval.o
    0x08002fb4   0x00000002   Code   RO            9    i.SVC_Handler       stm32f10x_it.o
    0x08002fb6   0x00000002   PAD
    0x08002fb8   0x000000d0   Code   RO         5993    i.SetSysClockTo72   system_stm32f10x.o
    0x08003088   0x00000028   Code   RO         3657    i.Set_MAC_Address   ethernetif.o
    0x080030b0   0x00000004   Code   RO           10    i.SysTick_Handler   stm32f10x_it.o
    0x080030b4   0x0000004c   Code   RO         5994    i.SystemInit        system_stm32f10x.o
    0x08003100   0x00000018   Code   RO          147    i.System_Periodic_Handle  main.o
    0x08003118   0x00000144   Code   RO          247    i.System_Setup      stm32f107.o
    0x0800325c   0x00000010   Code   RO          148    i.Time_Update       main.o
    0x0800326c   0x00000002   Code   RO           11    i.UsageFault_Handler  stm32f10x_it.o
    0x0800326e   0x00000002   PAD
    0x08003270   0x00000054   Code   RO          706    i.client_init       client.o
    0x080032c4   0x0000002c   Code   RO          388    i.close_conn        httpd.o
    0x080032f0   0x00000004   Code   RO          389    i.conn_err          httpd.o
    0x080032f4   0x0000001c   Code   RO         3269    i.delay             stm3210c_eval_ioe.o
    0x08003310   0x0000001c   Code   RO         3498    i.delay             stm3210c_eval_lcd.o
    0x0800332c   0x0000001e   Code   RO         4150    i.dhcp_arp_reply    dhcp.o
    0x0800334a   0x00000002   PAD
    0x0800334c   0x000000d8   Code   RO         4151    i.dhcp_bind         dhcp.o
    0x08003424   0x00000030   Code   RO         4152    i.dhcp_check        dhcp.o
    0x08003454   0x00000060   Code   RO         4153    i.dhcp_coarse_tmr   dhcp.o
    0x080034b4   0x00000100   Code   RO         4154    i.dhcp_create_request  dhcp.o
    0x080035b4   0x00000094   Code   RO         4155    i.dhcp_decline      dhcp.o
    0x08003648   0x0000001c   Code   RO         4156    i.dhcp_delete_request  dhcp.o
    0x08003664   0x000000dc   Code   RO         4157    i.dhcp_discover     dhcp.o
    0x08003740   0x00000034   Code   RO         4158    i.dhcp_fine_tmr     dhcp.o
    0x08003774   0x00000020   Code   RO         4159    i.dhcp_free_reply   dhcp.o
    0x08003794   0x00000016   Code   RO         4160    i.dhcp_get_option_long  dhcp.o
    0x080037aa   0x0000007e   Code   RO         4161    i.dhcp_get_option_ptr  dhcp.o
    0x08003828   0x000000dc   Code   RO         4162    i.dhcp_handle_ack   dhcp.o
    0x08003904   0x00000020   Code   RO         4164    i.dhcp_option       dhcp.o
    0x08003924   0x00000010   Code   RO         4165    i.dhcp_option_byte  dhcp.o
    0x08003934   0x00000042   Code   RO         4166    i.dhcp_option_long  dhcp.o
    0x08003976   0x00000022   Code   RO         4167    i.dhcp_option_short  dhcp.o
    0x08003998   0x00000030   Code   RO         4168    i.dhcp_option_trailer  dhcp.o
    0x080039c8   0x000000a0   Code   RO         4169    i.dhcp_rebind       dhcp.o
    0x08003a68   0x00000128   Code   RO         4170    i.dhcp_recv         dhcp.o
    0x08003b90   0x000000c0   Code   RO         4171    i.dhcp_release      dhcp.o
    0x08003c50   0x0000009c   Code   RO         4172    i.dhcp_renew        dhcp.o
    0x08003cec   0x00000104   Code   RO         4173    i.dhcp_select       dhcp.o
    0x08003df0   0x0000000e   Code   RO         4174    i.dhcp_set_state    dhcp.o
    0x08003dfe   0x00000002   PAD
    0x08003e00   0x000000a4   Code   RO         4175    i.dhcp_start        dhcp.o
    0x08003ea4   0x0000003e   Code   RO         4176    i.dhcp_stop         dhcp.o
    0x08003ee2   0x00000074   Code   RO         4177    i.dhcp_timeout      dhcp.o
    0x08003f56   0x00000070   Code   RO         4178    i.dhcp_unfold_reply  dhcp.o
    0x08003fc6   0x00000066   Code   RO         4972    i.dir_addCluster    dir.o
    0x0800402c   0x00000026   Code   RO         4973    i.dir_createDefaultEntry  dir.o
    0x08004052   0x00000030   Code   RO         4974    i.dir_createDirectoryEntry  dir.o
    0x08004082   0x00000058   Code   RO         4975    i.dir_findFileinBuf  dir.o
    0x080040da   0x00000040   Code   RO         4976    i.dir_findFreeEntryinBuf  dir.o
    0x0800411a   0x00000014   Code   RO         4977    i.dir_findinBuf     dir.o
    0x0800412e   0x0000006a   Code   RO         4978    i.dir_findinCluster  dir.o
    0x08004198   0x00000056   Code   RO         4979    i.dir_findinDir     dir.o
    0x080041ee   0x0000006e   Code   RO         4980    i.dir_findinRootArea  dir.o
    0x0800425c   0x00000046   Code   RO         4981    i.dir_getFatFileName  dir.o
    0x080042a2   0x00000030   Code   RO         4982    i.dir_getFileStructure  dir.o
    0x080042d2   0x00000026   Code   RO         4983    i.dir_setFileSize   dir.o
    0x080042f8   0x00000030   Code   RO         4984    i.dir_setFirstCluster  dir.o
    0x08004328   0x00000032   Code   RO         4985    i.dir_updateDirectoryEntry  dir.o
    0x0800435a   0x0000000a   Code   RO         5068    i.disc_initDisc     disc.o
    0x08004364   0x0000003c   Code   RO         5069    i.disc_loadMBR      disc.o
    0x080043a0   0x00000068   Code   RO         5089    i.efs_init          efs.o
    0x08004408   0x000000da   Code   RO         4886    i.etharp_arp_input  etharp.o
    0x080044e2   0x00000028   Code   RO         4888    i.etharp_ip_input   etharp.o
    0x0800450a   0x00000002   PAD
    0x0800450c   0x000000b8   Code   RO         4889    i.etharp_output     etharp.o
    0x080045c4   0x00000104   Code   RO         4890    i.etharp_query      etharp.o
    0x080046c8   0x0000009e   Code   RO         4891    i.etharp_raw        etharp.o
    0x08004766   0x00000002   PAD
    0x08004768   0x00000024   Code   RO         4892    i.etharp_request    etharp.o
    0x0800478c   0x00000036   Code   RO         4893    i.etharp_send_ip    etharp.o
    0x080047c2   0x00000002   PAD
    0x080047c4   0x00000054   Code   RO         4894    i.etharp_tmr        etharp.o
    0x08004818   0x00000054   Code   RO         4895    i.ethernet_input    etharp.o
    0x0800486c   0x00000040   Code   RO         3658    i.ethernetif_init   ethernetif.o
    0x080048ac   0x00000078   Code   RO         3659    i.ethernetif_input  ethernetif.o
    0x08004924   0x0000003c   Code   RO         5104    i.ex_getPartitionField  extract.o
    0x08004960   0x0000000e   Code   RO         5105    i.ex_getb16         extract.o
    0x0800496e   0x00000018   Code   RO         5106    i.ex_getb32         extract.o
    0x08004986   0x00000038   Code   RO         5146    i.fat_DiscToLogicCluster  fat.o
    0x080049be   0x00000052   Code   RO         5147    i.fat_LogicToDiscCluster  fat.o
    0x08004a10   0x0000011e   Code   RO         5148    i.fat_allocClusterChain  fat.o
    0x08004b2e   0x00000030   Code   RO         5149    i.fat_countClustersInChain  fat.o
    0x08004b5e   0x0000009c   Code   RO         5151    i.fat_getNextClusterAddress  fat.o
    0x08004bfa   0x00000078   Code   RO         5152    i.fat_getNextClusterAddressWBuf  fat.o
    0x08004c72   0x00000098   Code   RO         5153    i.fat_getNextClusterChain  fat.o
    0x08004d0a   0x00000030   Code   RO         5154    i.fat_getSectorAddressFatEntry  fat.o
    0x08004d3a   0x00000026   Code   RO         5155    i.fat_giveEocMarker  fat.o
    0x08004d60   0x00000038   Code   RO         5156    i.fat_isEocMarker   fat.o
    0x08004d98   0x000000de   Code   RO         5157    i.fat_setNextClusterAddress  fat.o
    0x08004e76   0x000000b0   Code   RO         5158    i.fat_setNextClusterAddressWBuf  fat.o
    0x08004f26   0x00000066   Code   RO         5238    i.file_fclose       file.o
    0x08004f8c   0x0000019e   Code   RO         5239    i.file_fopen        file.o
    0x0800512a   0x000000cc   Code   RO         5240    i.file_fread        file.o
    0x080051f6   0x0000010a   Code   RO         5241    i.file_fwrite       file.o
    0x08005300   0x0000000c   Code   RO         5242    i.file_getAttr      file.o
    0x0800530c   0x0000002c   Code   RO         5243    i.file_initFile     file.o
    0x08005338   0x00000086   Code   RO         5244    i.file_normalToFatName  file.o
    0x080053be   0x00000018   Code   RO         5245    i.file_read         file.o
    0x080053d6   0x00000054   Code   RO         5246    i.file_requiredCluster  file.o
    0x0800542a   0x00000016   Code   RO         5247    i.file_setAttr      file.o
    0x08005440   0x00000012   Code   RO         5248    i.file_setpos       file.o
    0x08005452   0x0000003e   Code   RO         5249    i.file_validateChar  file.o
    0x08005490   0x00000018   Code   RO         5250    i.file_write        file.o
    0x080054a8   0x0000013c   Code   RO         4896    i.find_entry        etharp.o
    0x080055e4   0x0000001e   Code   RO         4897    i.free_etharp_q     etharp.o
    0x08005602   0x00000042   Code   RO         5320    i.fs_clearCluster   fs.o
    0x08005644   0x00000024   Code   RO         5321    i.fs_clusterToSector  fs.o
    0x08005668   0x0000004c   Code   RO         5322    i.fs_countDataSectors  fs.o
    0x080056b4   0x0000002a   Code   RO         5323    i.fs_determineFatType  fs.o
    0x080056de   0x000000b6   Code   RO         5324    i.fs_findFile       fs.o
    0x08005794   0x00000024   Code   RO         5325    i.fs_findFirstSectorRootDir  fs.o
    0x080057b8   0x0000005c   Code   RO         5326    i.fs_findFreeFile   fs.o
    0x08005814   0x0000000a   Code   RO         5327    i.fs_flushFs        fs.o
    0x0800581e   0x00000010   Code   RO         5328    i.fs_getFirstClusterRootDir  fs.o
    0x0800582e   0x00000038   Code   RO         5330    i.fs_getLastCluster  fs.o
    0x08005866   0x00000024   Code   RO         5331    i.fs_getNextFreeCluster  fs.o
    0x0800588a   0x00000004   Code   RO         5332    i.fs_giveFreeClusterHint  fs.o
    0x0800588e   0x00000004   Code   RO         5822    i.fs_hasTimeSupport  time.o
    0x08005892   0x00000010   Code   RO         5333    i.fs_initClusterChain  fs.o
    0x080058a2   0x0000000c   Code   RO         5334    i.fs_initCurrentDir  fs.o
    0x080058ae   0x00000048   Code   RO         5335    i.fs_initFs         fs.o
    0x080058f6   0x0000002e   Code   RO         5336    i.fs_isValidFat     fs.o
    0x08005924   0x00000074   Code   RO         5337    i.fs_loadVolumeId   fs.o
    0x08005998   0x00000030   Code   RO          390    i.fs_open           httpd.o
    0x080059c8   0x00000008   Code   RO         5339    i.fs_setFirstClusterInDirEntry  fs.o
    0x080059d0   0x00000004   Code   RO         5341    i.fs_umount         fs.o
    0x080059d4   0x00000094   Code   RO         5342    i.fs_verifySanity   fs.o
    0x08005a68   0x00000004   Code   RO         4688    i.htonl             inet.o
    0x08005a6c   0x00000004   Code   RO         4689    i.htons             inet.o
    0x08005a70   0x0000004c   Code   RO          391    i.http_accept       httpd.o
    0x08005abc   0x0000001a   Code   RO          392    i.http_poll         httpd.o
    0x08005ad6   0x00000002   PAD
    0x08005ad8   0x00000220   Code   RO          393    i.http_recv         httpd.o
    0x08005cf8   0x0000001c   Code   RO          394    i.http_sent         httpd.o
    0x08005d14   0x0000002c   Code   RO          395    i.httpd_init        httpd.o
    0x08005d40   0x00000008   Code   RO         4653    i.icmp_dest_unreach  icmp.o
    0x08005d48   0x00000114   Code   RO         4654    i.icmp_input        icmp.o
    0x08005e5c   0x00000066   Code   RO         4655    i.icmp_send_response  icmp.o
    0x08005ec2   0x00000008   Code   RO         4656    i.icmp_time_exceeded  icmp.o
    0x08005eca   0x00000042   Code   RO         5944    i.if_initInterface  sd_stm32.o
    0x08005f0c   0x00000008   Code   RO         5945    i.if_readBuf        sd_stm32.o
    0x08005f14   0x00000040   Code   RO         5947    i.if_spiInit        sd_stm32.o
    0x08005f54   0x00000040   Code   RO         5948    i.if_spiSend        sd_stm32.o
    0x08005f94   0x00000004   Code   RO         5949    i.if_writeBuf       sd_stm32.o
    0x08005f98   0x0000000c   Code   RO         4736    i.inet_chksum       inet_chksum.o
    0x08005fa4   0x00000048   Code   RO         4737    i.inet_chksum_pbuf  inet_chksum.o
    0x08005fec   0x0000001a   Code   RO         5460    i.ioman_decUseCnt   ioman.o
    0x08006006   0x00000060   Code   RO         5461    i.ioman_directSectorRead  ioman.o
    0x08006066   0x00000090   Code   RO         5462    i.ioman_directSectorWrite  ioman.o
    0x080060f6   0x00000028   Code   RO         5463    i.ioman_findFreeSpot  ioman.o
    0x0800611e   0x00000070   Code   RO         5464    i.ioman_findOverallocableSpot  ioman.o
    0x0800618e   0x00000034   Code   RO         5465    i.ioman_findSectorInCache  ioman.o
    0x080061c2   0x0000007c   Code   RO         5466    i.ioman_findUnusedSpot  ioman.o
    0x0800623e   0x00000060   Code   RO         5468    i.ioman_flushRange  ioman.o
    0x0800629e   0x0000005a   Code   RO         5469    i.ioman_flushSector  ioman.o
    0x080062f8   0x0000001a   Code   RO         5470    i.ioman_getAttr     ioman.o
    0x08006312   0x00000028   Code   RO         5471    i.ioman_getBp       ioman.o
    0x0800633a   0x00000016   Code   RO         5473    i.ioman_getPtr      ioman.o
    0x08006350   0x00000014   Code   RO         5474    i.ioman_getRefCnt   ioman.o
    0x08006364   0x000000d8   Code   RO         5475    i.ioman_getSector   ioman.o
    0x0800643c   0x00000014   Code   RO         5476    i.ioman_getUseCnt   ioman.o
    0x08006450   0x0000001a   Code   RO         5477    i.ioman_incRefCnt   ioman.o
    0x0800646a   0x0000001a   Code   RO         5478    i.ioman_incUseCnt   ioman.o
    0x08006484   0x00000018   Code   RO         5479    i.ioman_init        ioman.o
    0x0800649c   0x00000046   Code   RO         5480    i.ioman_pop         ioman.o
    0x080064e2   0x00000046   Code   RO         5482    i.ioman_push        ioman.o
    0x08006528   0x00000046   Code   RO         5483    i.ioman_putSectorInCache  ioman.o
    0x0800656e   0x0000001c   Code   RO         5484    i.ioman_readSector  ioman.o
    0x0800658a   0x00000050   Code   RO         5485    i.ioman_releaseSector  ioman.o
    0x080065da   0x0000005e   Code   RO         5486    i.ioman_reset       ioman.o
    0x08006638   0x0000001e   Code   RO         5487    i.ioman_resetCacheItem  ioman.o
    0x08006656   0x00000022   Code   RO         5490    i.ioman_setAttr     ioman.o
    0x08006678   0x00000020   Code   RO         5491    i.ioman_writeSector  ioman.o
    0x08006698   0x00000030   Code   RO         4816    i.ip_addr_isbroadcast  ip_addr.o
    0x080066c8   0x00000130   Code   RO         4839    i.ip_frag           ip_frag.o
    0x080067f8   0x00000194   Code   RO         4774    i.ip_input          ip.o
    0x0800698c   0x00000034   Code   RO         4775    i.ip_output         ip.o
    0x080069c0   0x000000cc   Code   RO         4776    i.ip_output_if      ip.o
    0x08006a8c   0x000001b0   Code   RO         4840    i.ip_reass          ip_frag.o
    0x08006c3c   0x000000f0   Code   RO         4841    i.ip_reass_chain_frag_into_datagram_and_validate  ip_frag.o
    0x08006d2c   0x00000024   Code   RO         4842    i.ip_reass_dequeue_datagram  ip_frag.o
    0x08006d50   0x00000070   Code   RO         4843    i.ip_reass_free_complete_datagram  ip_frag.o
    0x08006dc0   0x00000074   Code   RO         4844    i.ip_reass_remove_oldest_datagram  ip_frag.o
    0x08006e34   0x00000048   Code   RO         4777    i.ip_route          ip.o
    0x08006e7c   0x00000088   Code   RO         3660    i.low_level_init    ethernetif.o
    0x08006f04   0x0000002c   Code   RO         3661    i.low_level_output  ethernetif.o
    0x08006f30   0x00000042   Code   RO         5660    i.ls_openDir        ls.o
    0x08006f72   0x0000003c   Code   RO         4739    i.lwip_standard_chksum  inet_chksum.o
    0x08006fae   0x0000001a   Code   RO          149    i.main              main.o
    0x08006fc8   0x00000012   Code   RO         5786    i.memClr            plibc.o
    0x08006fda   0x00000018   Code   RO         5787    i.memCpy            plibc.o
    0x08006ff2   0x0000001a   Code   RO         4346    i.mem_calloc        mem.o
    0x0800700c   0x0000002c   Code   RO         4347    i.mem_free          mem.o
    0x08007038   0x00000034   Code   RO         4348    i.mem_init          mem.o
    0x0800706c   0x000000a8   Code   RO         4349    i.mem_malloc        mem.o
    0x08007114   0x000000c4   Code   RO         4350    i.mem_realloc       mem.o
    0x080071d8   0x00000018   Code   RO         4390    i.memp_free         memp.o
    0x080071f0   0x00000058   Code   RO         4391    i.memp_init         memp.o
    0x08007248   0x00000020   Code   RO         4392    i.memp_malloc       memp.o
    0x08007268   0x0000004c   Code   RO         4432    i.netif_add         netif.o
    0x080072b4   0x0000000a   Code   RO         4434    i.netif_is_up       netif.o
    0x080072be   0x00000020   Code   RO         4436    i.netif_set_addr    netif.o
    0x080072de   0x00000002   PAD
    0x080072e0   0x0000000c   Code   RO         4437    i.netif_set_default  netif.o
    0x080072ec   0x00000012   Code   RO         4438    i.netif_set_down    netif.o
    0x080072fe   0x00000008   Code   RO         4439    i.netif_set_gw      netif.o
    0x08007306   0x00000002   PAD
    0x08007308   0x00000068   Code   RO         4440    i.netif_set_ipaddr  netif.o
    0x08007370   0x00000008   Code   RO         4441    i.netif_set_netmask  netif.o
    0x08007378   0x0000001c   Code   RO         4442    i.netif_set_up      netif.o
    0x08007394   0x00000004   Code   RO         4693    i.ntohl             inet.o
    0x08007398   0x00000004   Code   RO         4694    i.ntohs             inet.o
    0x0800739c   0x0000001a   Code   RO         5718    i.part_directSectorRead  partition.o
    0x080073b6   0x0000001a   Code   RO         5719    i.part_directSectorWrite  partition.o
    0x080073d0   0x00000026   Code   RO         5720    i.part_flushPart    partition.o
    0x080073f6   0x00000012   Code   RO         5721    i.part_getRealLBA   partition.o
    0x08007408   0x0000001a   Code   RO         5722    i.part_getSect      partition.o
    0x08007422   0x00000028   Code   RO         5723    i.part_initPartition  partition.o
    0x0800744a   0x00000020   Code   RO         5724    i.part_isFatPart    partition.o
    0x0800746a   0x00000008   Code   RO         5726    i.part_relSect      partition.o
    0x08007472   0x0000010c   Code   RO         4507    i.pbuf_alloc        pbuf.o
    0x0800757e   0x00000028   Code   RO         4508    i.pbuf_cat          pbuf.o
    0x080075a6   0x00000012   Code   RO         4509    i.pbuf_chain        pbuf.o
    0x080075b8   0x00000012   Code   RO         4510    i.pbuf_clen         pbuf.o
    0x080075ca   0x00000090   Code   RO         4512    i.pbuf_copy         pbuf.o
    0x0800765a   0x00000068   Code   RO         4513    i.pbuf_copy_partial  pbuf.o
    0x080076c2   0x00000044   Code   RO         4515    i.pbuf_free         pbuf.o
    0x08007706   0x00000060   Code   RO         4516    i.pbuf_header       pbuf.o
    0x08007766   0x0000004e   Code   RO         4517    i.pbuf_realloc      pbuf.o
    0x080077b4   0x0000000c   Code   RO         4518    i.pbuf_ref          pbuf.o
    0x080077c0   0x00000054   Code   RO         4351    i.plug_holes        mem.o
    0x08007814   0x000000c4   Code   RO          461    i.process_tftp_request  tftpserver.o
    0x080078d8   0x00000068   Code   RO         4593    i.raw_input         raw.o
    0x08007940   0x00000018   Code   RO          462    i.recv_callback_tftp  tftpserver.o
    0x08007958   0x00000054   Code   RO          463    i.rrq_recv_callback  tftpserver.o
    0x080079ac   0x00000050   Code   RO         5873    i.sd_Command        sd.o
    0x080079fc   0x00000062   Code   RO         5874    i.sd_Init           sd.o
    0x08007a5e   0x00000016   Code   RO         5875    i.sd_Resp16b        sd.o
    0x08007a74   0x0000001c   Code   RO         5876    i.sd_Resp8b         sd.o
    0x08007a90   0x00000028   Code   RO         5878    i.sd_State          sd.o
    0x08007ab8   0x00000096   Code   RO         5879    i.sd_getDriveSize   sd.o
    0x08007b4e   0x00000070   Code   RO         5880    i.sd_readSector     sd.o
    0x08007bbe   0x00000064   Code   RO         5881    i.sd_writeSector    sd.o
    0x08007c22   0x0000002c   Code   RO          396    i.send_data         httpd.o
    0x08007c4e   0x00000002   PAD
    0x08007c50   0x00000028   Code   RO          742    i.server_init       server.o
    0x08007c78   0x0000001e   Code   RO         5789    i.strMatch          plibc.o
    0x08007c96   0x00000002   PAD
    0x08007c98   0x00000094   Code   RO         3779    i.tcp_abandon       tcp.o
    0x08007d2c   0x00000004   Code   RO         3780    i.tcp_accept        tcp.o
    0x08007d30   0x00000006   Code   RO         3781    i.tcp_accept_null   tcp.o
    0x08007d36   0x00000002   PAD
    0x08007d38   0x00000104   Code   RO         3782    i.tcp_alloc         tcp.o
    0x08007e3c   0x00000004   Code   RO         3783    i.tcp_arg           tcp.o
    0x08007e40   0x000000bc   Code   RO         3784    i.tcp_bind          tcp.o
    0x08007efc   0x00000080   Code   RO          707    i.tcp_client_connected  client.o
    0x08007f7c   0x000000a0   Code   RO         3785    i.tcp_close         tcp.o
    0x0800801c   0x000000c4   Code   RO         3786    i.tcp_connect       tcp.o
    0x080080e0   0x00000020   Code   RO         3787    i.tcp_eff_send_mss  tcp.o
    0x08008100   0x000002f0   Code   RO         4001    i.tcp_enqueue       tcp_out.o
    0x080083f0   0x00000006   Code   RO         3788    i.tcp_err           tcp.o
    0x080083f6   0x00000002   PAD
    0x080083f8   0x00000058   Code   RO         3789    i.tcp_fasttmr       tcp.o
    0x08008450   0x0000031c   Code   RO         3955    i.tcp_input         tcp_in.o
    0x0800876c   0x00000046   Code   RO         4002    i.tcp_keepalive     tcp_out.o
    0x080087b2   0x00000002   PAD
    0x080087b4   0x00000020   Code   RO          708    i.tcp_led_control   client.o
    0x080087d4   0x000000e8   Code   RO         3956    i.tcp_listen_input  tcp_in.o
    0x080088bc   0x00000084   Code   RO         3790    i.tcp_listen_with_backlog  tcp.o
    0x08008940   0x00000006   Code   RO         3791    i.tcp_new           tcp.o
    0x08008946   0x00000002   PAD
    0x08008948   0x00000060   Code   RO         3792    i.tcp_new_port      tcp.o
    0x080089a8   0x00000010   Code   RO         3793    i.tcp_next_iss      tcp.o
    0x080089b8   0x00000218   Code   RO         4003    i.tcp_output        tcp_out.o
    0x08008bd0   0x000000b0   Code   RO         4004    i.tcp_output_segment  tcp_out.o
    0x08008c80   0x00000078   Code   RO         4005    i.tcp_output_set_header  tcp_out.o
    0x08008cf8   0x00000080   Code   RO         3957    i.tcp_parseopt      tcp_in.o
    0x08008d78   0x00000030   Code   RO         3794    i.tcp_pcb_purge     tcp.o
    0x08008da8   0x00000060   Code   RO         3795    i.tcp_pcb_remove    tcp.o
    0x08008e08   0x0000000a   Code   RO         3796    i.tcp_poll          tcp.o
    0x08008e12   0x00000002   PAD
    0x08008e14   0x00000344   Code   RO         3958    i.tcp_process       tcp_in.o
    0x08009158   0x0000046a   Code   RO         3959    i.tcp_receive       tcp_in.o
    0x080095c2   0x00000006   Code   RO         3797    i.tcp_recv          tcp.o
    0x080095c8   0x0000001c   Code   RO         3798    i.tcp_recv_null     tcp.o
    0x080095e4   0x0000003c   Code   RO         3799    i.tcp_recved        tcp.o
    0x08009620   0x00000054   Code   RO         4006    i.tcp_rexmit        tcp_out.o
    0x08009674   0x0000002e   Code   RO         4007    i.tcp_rexmit_rto    tcp_out.o
    0x080096a2   0x00000098   Code   RO         4008    i.tcp_rst           tcp_out.o
    0x0800973a   0x00000020   Code   RO         3800    i.tcp_seg_free      tcp.o
    0x0800975a   0x0000001a   Code   RO         3801    i.tcp_segs_free     tcp.o
    0x08009774   0x00000016   Code   RO         4009    i.tcp_send_ctrl     tcp_out.o
    0x0800978a   0x00000006   Code   RO         3802    i.tcp_sent          tcp.o
    0x08009790   0x00000014   Code   RO          743    i.tcp_server_accept  server.o
    0x080097a4   0x00000034   Code   RO          744    i.tcp_server_recv   server.o
    0x080097d8   0x00000210   Code   RO         3804    i.tcp_slowtmr       tcp.o
    0x080099e8   0x00000020   Code   RO         3805    i.tcp_tmr           tcp.o
    0x08009a08   0x0000002a   Code   RO         3806    i.tcp_update_rcv_ann_wnd  tcp.o
    0x08009a32   0x0000002e   Code   RO         4010    i.tcp_write         tcp_out.o
    0x08009a60   0x00000052   Code   RO         4011    i.tcp_zero_window_probe  tcp_out.o
    0x08009ab2   0x00000002   PAD
    0x08009ab4   0x00000044   Code   RO          464    i.tftp_cleanup_rd   tftpserver.o
    0x08009af8   0x00000044   Code   RO          465    i.tftp_cleanup_wr   tftpserver.o
    0x08009b3c   0x00000030   Code   RO          466    i.tftp_construct_error_message  tftpserver.o
    0x08009b6c   0x00000004   Code   RO          629    i.tftp_decode_op    tftputils.o
    0x08009b70   0x00000006   Code   RO          630    i.tftp_extract_block  tftputils.o
    0x08009b76   0x00000006   Code   RO          631    i.tftp_extract_filename  tftputils.o
    0x08009b7c   0x0000001a   Code   RO          632    i.tftp_is_correct_ack  tftputils.o
    0x08009b96   0x00000002   PAD
    0x08009b98   0x00000080   Code   RO          467    i.tftp_process_read  tftpserver.o
    0x08009c18   0x00000080   Code   RO          468    i.tftp_process_write  tftpserver.o
    0x08009c98   0x00000030   Code   RO          469    i.tftp_send_ack_packet  tftpserver.o
    0x08009cc8   0x00000046   Code   RO          470    i.tftp_send_data_packet  tftpserver.o
    0x08009d0e   0x00000028   Code   RO          471    i.tftp_send_error_message  tftpserver.o
    0x08009d36   0x00000046   Code   RO          472    i.tftp_send_message  tftpserver.o
    0x08009d7c   0x00000038   Code   RO          473    i.tftp_send_next_block  tftpserver.o
    0x08009db4   0x0000000e   Code   RO          633    i.tftp_set_block    tftputils.o
    0x08009dc2   0x00000006   Code   RO          634    i.tftp_set_data_message  tftputils.o
    0x08009dc8   0x00000008   Code   RO          635    i.tftp_set_errorcode  tftputils.o
    0x08009dd0   0x00000006   Code   RO          636    i.tftp_set_errormsg  tftputils.o
    0x08009dd6   0x00000008   Code   RO          637    i.tftp_set_opcode   tftputils.o
    0x08009dde   0x00000002   PAD
    0x08009de0   0x00000038   Code   RO          474    i.tftpd_init        tftpserver.o
    0x08009e18   0x0000005c   Code   RO         4071    i.udp_bind          udp.o
    0x08009e74   0x000000a8   Code   RO          709    i.udp_client_callback  client.o
    0x08009f1c   0x0000004c   Code   RO         4072    i.udp_connect       udp.o
    0x08009f68   0x00000018   Code   RO         4073    i.udp_disconnect    udp.o
    0x08009f80   0x00000164   Code   RO         4074    i.udp_input         udp.o
    0x0800a0e4   0x0000001a   Code   RO         4075    i.udp_new           udp.o
    0x0800a0fe   0x00000006   Code   RO         4076    i.udp_recv          udp.o
    0x0800a104   0x0000002c   Code   RO         4077    i.udp_remove        udp.o
    0x0800a130   0x00000008   Code   RO         4078    i.udp_send          udp.o
    0x0800a138   0x00000028   Code   RO         4079    i.udp_sendto        udp.o
    0x0800a160   0x000000b0   Code   RO         4080    i.udp_sendto_if     udp.o
    0x0800a210   0x000000e4   Code   RO          745    i.udp_server_callback  server.o
    0x0800a2f4   0x000000a8   Code   RO         4898    i.update_arp_entry  etharp.o
    0x0800a39c   0x000000b4   Code   RO          475    i.wrq_recv_callback  tftpserver.o
    0x0800a450   0x00000a93   Data   RO          397    .constdata          httpd.o
    0x0800aee3   0x00004a21   Data   RO          398    .constdata          httpd.o
    0x0800f904   0x000017ea   Data   RO          399    .constdata          httpd.o
    0x080110ee   0x00000fb9   Data   RO          400    .constdata          httpd.o
    0x080120a7   0x00000001   PAD
    0x080120a8   0x00000010   Data   RO          401    .constdata          httpd.o
    0x080120b8   0x00000010   Data   RO          402    .constdata          httpd.o
    0x080120c8   0x00000010   Data   RO          403    .constdata          httpd.o
    0x080120d8   0x00000010   Data   RO          404    .constdata          httpd.o
    0x080120e8   0x00000050   Data   RO         3424    .constdata          stm32_eval.o
    0x08012138   0x000011d0   Data   RO         3499    .constdata          stm3210c_eval_lcd.o
    0x08013308   0x00000014   Data   RO         3807    .constdata          tcp.o
    0x0801331c   0x00000024   Data   RO         4394    .constdata          memp.o
    0x08013340   0x00000004   Data   RO         4817    .constdata          ip_addr.o
    0x08013344   0x00000004   Data   RO         4818    .constdata          ip_addr.o
    0x08013348   0x0000000c   Data   RO         4900    .constdata          etharp.o
    0x08013354   0x0000000f   Data   RO          405    .conststring        httpd.o
    0x08013363   0x00000001   PAD
    0x08013364   0x0000001b   Data   RO          406    .conststring        httpd.o
    0x0801337f   0x00000001   PAD
    0x08013380   0x00000010   Data   RO          407    .conststring        httpd.o
    0x08013390   0x00000013   Data   RO          408    .conststring        httpd.o
    0x080133a3   0x00000001   PAD
    0x080133a4   0x00000013   Data   RO          409    .conststring        httpd.o
    0x080133b7   0x00000001   PAD
    0x080133b8   0x00000088   Data   RO          477    .conststring        tftpserver.o
    0x08013440   0x00000020   Data   RO         6251    Region$$Table       anon$$obj.o


    Execution Region RW_IRAM1 (Base: 0x20000000, Size: 0x0000e1c8, Max: 0x00010000, ABSOLUTE, COMPRESSED[0x00000738])

    Base Addr    Size         Type   Attr      Idx    E Section Name        Object

    0x20000000   0x00000004   Data   RW           12    .data               stm32f10x_it.o
    0x20000004   0x00000008   Data   RW          150    .data               main.o
    0x2000000c   0x0000001c   Data   RW          291    .data               netconf.o
    0x20000028   0x000011f9   Data   RW          410    .data               httpd.o
    0x20001221   0x00000003   PAD
    0x20001224   0x00000010   Data   RW          411    .data               httpd.o
    0x20001234   0x00000024   Data   RW          478    .data               tftpserver.o
    0x20001258   0x00000004   Data   RW          710    .data               client.o
    0x2000125c   0x00000014   Data   RW         1094    .data               stm32f10x_rcc.o
    0x20001270   0x00000010   Data   RW         2738    .data               stm32_eth.o
    0x20001280   0x00000018   Data   RW         3270    .data               stm3210c_eval_ioe.o
    0x20001298   0x00000024   Data   RW         3425    .data               stm32_eval.o
    0x200012bc   0x00000004   Data   RW         3500    .data               stm3210c_eval_lcd.o
    0x200012c0   0x00000006   Data   RW         3666    .data               ethernetif.o
    0x200012c6   0x00000002   PAD
    0x200012c8   0x00000020   Data   RW         3808    .data               tcp.o
    0x200012e8   0x0000001c   Data   RW         3961    .data               tcp_in.o
    0x20001304   0x00000004   Data   RW         4081    .data               udp.o
    0x20001308   0x00000004   Data   RW         4179    .data               dhcp.o
    0x2000130c   0x00000010   Data   RW         4353    .data               mem.o
    0x2000131c   0x0000000c   Data   RW         4443    .data               netif.o
    0x20001328   0x00000004   Data   RW         4599    .data               raw.o
    0x2000132c   0x0000000c   Data   RW         4778    .data               ip.o
    0x20001338   0x00000008   Data   RW         4847    .data               ip_frag.o
    0x20001340   0x00000001   Data   RW         4901    .data               etharp.o
    0x20001341   0x00000003   PAD
    0x20001344   0x00000034   Zero   RW          290    .bss                netconf.o
    0x20001378   0x00000670   Zero   RW          476    .bss                tftpserver.o
    0x200019e8   0x00002400   Zero   RW         3662    .bss                ethernetif.o
    0x20003de8   0x00000014   Zero   RW         3960    .bss                tcp_in.o
    0x20003dfc   0x00005014   Zero   RW         4352    .bss                mem.o
    0x20008e10   0x000046af   Zero   RW         4393    .bss                memp.o
    0x2000d4bf   0x000005e0   Zero   RW         4846    .bss                ip_frag.o
    0x2000da9f   0x00000001   PAD
    0x2000daa0   0x000000c8   Zero   RW         4899    .bss                etharp.o
    0x2000db68   0x00000060   Zero   RW         6126    .bss                c_w.l(libspace.o)
    0x2000dbc8   0x00000200   Zero   RW         6032    HEAP                startup_stm32f10x_cl.o
    0x2000ddc8   0x00000400   Zero   RW         6031    STACK               startup_stm32f10x_cl.o


==============================================================================

Image component sizes


      Code (inc. data)   RO Data    RW Data    ZI Data      Debug   Object Name

       412        100          0          4          0       3317   client.o
         0          0          0          0          0         32   core_cm3.o
      3222         80          0          4          0      19372   dhcp.o
       916          0          0          0          0       9686   dir.o
        70          0          0          0          0       1431   disc.o
       104          0          0          0          0        979   efs.o
      1632         34         12          1        200      11792   etharp.o
       556         52          0          6       9216       7162   ethernetif.o
        98          0          0          0          0       2011   extract.o
      1440          4          0          0          0       9278   fat.o
      1410          0          0          0          0       9345   file.o
      1074          0          0          0          0      12336   fs.o
       372         54          0          0          0       3146   helloworld.o
       858        142      31991       4617          0       7399   httpd.o
       394          0          0          0          0       3282   icmp.o
        16          0          0          0          0       2950   inet.o
       144          0          0          0          0       5481   inet_chksum.o
         0          0          0          0          0        704   init.o
      1708          0          0          0          0      17522   ioman.o
       732         24          0         12          0       4389   ip.o
        48          0          8          0          0       5521   ip_addr.o
      1240         34          0          8       1504       6525   ip_frag.o
        66          0          0          0          0       1285   ls.o
        86         14          0          8          0      14956   main.o
       570         30          0         16      20500       5298   mem.o
       144         20         36          0      18095       3834   memp.o
       140         24          0          0          0       2221   misc.o
      1136        472          0         28         52      20381   netconf.o
       296         20          0         12          0       7370   netif.o
       214          0          0          0          0       5026   partition.o
       846          0          0          0          0       7577   pbuf.o
        72          0          0          0          0       1993   plibc.o
       104          4          0          4          0       1640   raw.o
       630          0          0          0          0       6515   sd.o
       370         34          0          0          0       4404   sd_stm32.o
       340         68          0          0          0       3140   server.o
        56         22        336          0       1536        888   startup_stm32f10x_cl.o
      2484         92          0         24          0      23077   stm3210c_eval_ioe.o
      1488        100       4560          4          0      14448   stm3210c_eval_lcd.o
      1338        136          0         16          0      15412   stm32_eth.o
       320         50         80         36          0       4752   stm32_eval.o
       880        120          0          0          0       8910   stm32f107.o
       234         10          0          0          0       5312   stm32f10x_adc.o
       156         14          0          0          0       2352   stm32f10x_exti.o
       312         16          0          0          0       6268   stm32f10x_gpio.o
       338         10          0          0          0       7851   stm32f10x_i2c.o
       374        102          0          4          0     318594   stm32f10x_it.o
       436         80          0         20          0      10287   stm32f10x_rcc.o
       182         12          0          0          0       4731   stm32f10x_spi.o
       284         30          0          0          0       1701   system_stm32f10x.o
      2256         90         20         32          0      25736   tcp.o
      3122         76          0         28         20      13732   tcp_in.o
      2086         12          0          0          0       8915   tcp_out.o
      1264        100        136         36       1648      19530   tftpserver.o
        84          0          0          0          0       5562   tftputils.o
         4          0          0          0          0        500   time.o
       848         26          0          4          0      13642   udp.o

    ----------------------------------------------------------------------
     40082       2308      37216       4932      52772     741500   Object Totals
         0          0         32          0          0          0   (incl. Generated)
        76          0          5          8          1          0   (incl. Padding)

    ----------------------------------------------------------------------

      Code (inc. data)   RO Data    RW Data    ZI Data      Debug   Library Member Name

       100          0          0          0          0          0   __dclz77c.o
         8          0          0          0          0         68   __main.o
       104          0          0          0          0         84   __printf.o
         0          0          0          0          0          0   __rtentry.o
        12          0          0          0          0          0   __rtentry2.o
         6          0          0          0          0          0   __rtentry4.o
        52          8          0          0          0          0   __scatter.o
        28          0          0          0          0          0   __scatter_zi.o
        48          6          0          0          0         96   _printf_char_common.o
         6          0          0          0          0          0   _printf_d.o
       120         16          0          0          0         92   _printf_dec.o
       178          0          0          0          0         88   _printf_intcommon.o
         0          0          0          0          0          0   _printf_percent.o
         4          0          0          0          0          0   _printf_percent_end.o
        10          0          0          0          0         68   _sputc.o
        12          0          0          0          0         72   exit.o
         6          0          0          0          0        152   heapauxi.o
         0          0          0          0          0          0   indicate_semi.o
         2          0          0          0          0          0   libinit.o
         2          0          0          0          0          0   libinit2.o
         2          0          0          0          0          0   libshutdown.o
         2          0          0          0          0          0   libshutdown2.o
         8          4          0          0         96         68   libspace.o
        40          6          0          0          0         84   noretval__2sprintf.o
        68          0          0          0          0         68   rt_memclr.o
        78          0          0          0          0         80   rt_memclr_w.o
       138          0          0          0          0         68   rt_memcpy_v6.o
       100          0          0          0          0         80   rt_memcpy_w.o
         2          0          0          0          0          0   rtexit.o
        10          0          0          0          0          0   rtexit2.o
       128          0          0          0          0         68   strcmpv7m.o
        72          0          0          0          0         80   strcpy.o
        62          0          0          0          0         76   strlen.o
       150          0          0          0          0         80   strncmp.o
        12          4          0          0          0         68   sys_exit.o
        74          0          0          0          0         80   sys_stackheap_outer.o
         2          0          0          0          0         68   use_no_semi.o

    ----------------------------------------------------------------------
      1646         44          0          0         96       1688   Library Totals
         0          0          0          0          0          0   (incl. Padding)

    ----------------------------------------------------------------------

      Code (inc. data)   RO Data    RW Data    ZI Data      Debug   Library Name

      1646         44          0          0         96       1688   c_w.l

    ----------------------------------------------------------------------
      1646         44          0          0         96       1688   Library Totals

    ----------------------------------------------------------------------

==============================================================================


      Code (inc. data)   RO Data    RW Data    ZI Data      Debug   

     41728       2352      37216       4932      52868     718640   Grand Totals
     41728       2352      37216       1848      52868     718640   ELF Image Totals (compressed)
     41728       2352      37216       1848          0          0   ROM Totals

==============================================================================

    Total RO  Size (Code + RO Data)                78944 (  77.09kB)
    Total RW  Size (RW Data + ZI Data)             57800 (  56.45kB)
    Total ROM Size (Code + RO Data + RW Data)      80792 (  78.90kB)

==============================================================================

